BL51 BANKED LINKER/LOCATER V6.22.2.0                                                    11/11/2022  18:17:38  PAGE 1


BL51 BANKED LINKER/LOCATER V6.22.2.0, INVOKED BY:
D:\KEIL_V5\C51\BIN\BL51.EXE .\Output\main.c.obj, .\Output\uart2.obj, .\Output\common.obj, .\Output\adc.obj, .\Output\gpi
>> o.obj, .\Output\i2c.obj, .\Output\uart3.obj, .\Output\uart.obj, .\Output\pwm0.obj, .\Output\pwm123.obj, .\Output\eepr
>> om.obj, .\Output\lcd.obj, .\Output\sys.obj, .\Output\STARTUP.obj, .\Output\ADC_USER.obj, .\Output\CO2.obj, .\Output\C
>> RC8_NRSC5.obj, .\Output\EEPROM_USER.obj, .\Output\KEY.obj, .\Output\LCD_User.obj, .\Output\LED.obj, .\Output\SHTC3.ob
>> j, .\Output\Timer0.obj, .\Output\UART1_USER.obj, .\Output\UART2_USER.obj, .\Output\UART3_USER.obj, .\Output\WDT.obj, 
>> .\Output\WIFI.obj, .\Output\CRC16.obj, .\Output\BC3602.obj, .\Output\BC3602_Gateway.obj, .\Output\BC3602_SPI.obj TO .
>> \Output\Temp_Humi_CO2 PRINT (.\LST\Temp_Humi_CO2.m51) RAMSIZE (256) DISABLEWARNING (16)


MEMORY MODEL: LARGE WITH FLOATING POINT ARITHMETIC


INPUT MODULES INCLUDED:
  .\Output\main.c.obj (MAIN_C)
  .\Output\uart2.obj (UART2)
  .\Output\common.obj (COMMON)
  .\Output\adc.obj (ADC)
  .\Output\gpio.obj (GPIO)
  .\Output\i2c.obj (I2C)
  .\Output\uart3.obj (UART3)
  .\Output\uart.obj (UART)
  .\Output\pwm0.obj (PWM0)
  .\Output\pwm123.obj (PWM123)
  .\Output\eeprom.obj (EEPROM)
  .\Output\lcd.obj (LCD)
  .\Output\sys.obj (SYS)
  .\Output\STARTUP.obj (?C_STARTUP)
  .\Output\ADC_USER.obj (ADC_USER)
  .\Output\CO2.obj (CO2)
  .\Output\CRC8_NRSC5.obj (CRC8_NRSC5)
  .\Output\EEPROM_USER.obj (EEPROM_USER)
  .\Output\KEY.obj (KEY)
  .\Output\LCD_User.obj (LCD_USER)
  .\Output\LED.obj (LED)
  .\Output\SHTC3.obj (SHTC3)
  .\Output\Timer0.obj (TIMER0)
  .\Output\UART1_USER.obj (UART1_USER)
  .\Output\UART2_USER.obj (UART2_USER)
  .\Output\UART3_USER.obj (UART3_USER)
  .\Output\WDT.obj (WDT)
  .\Output\WIFI.obj (WIFI)
  .\Output\CRC16.obj (CRC16)
  .\Output\BC3602.obj (BC3602)
  .\Output\BC3602_Gateway.obj (BC3602_GATEWAY)
  .\Output\BC3602_SPI.obj (BC3602_SPI)
  D:\KEIL_V5\C51\LIB\C51FPL.LIB (?C?FPADD)
  D:\KEIL_V5\C51\LIB\C51FPL.LIB (?C?FPMUL)
  D:\KEIL_V5\C51\LIB\C51FPL.LIB (?C?FPDIV)
  D:\KEIL_V5\C51\LIB\C51FPL.LIB (?C?FPCMP)
  D:\KEIL_V5\C51\LIB\C51FPL.LIB (?C?FCAST)
  D:\KEIL_V5\C51\LIB\C51FPL.LIB (?C?CASTF)
  D:\KEIL_V5\C51\LIB\C51FPL.LIB (?C?FPGETOPN)
  D:\KEIL_V5\C51\LIB\C51L.LIB (?C_INIT)
  D:\KEIL_V5\C51\LIB\C51L.LIB (?C?COPY)
  D:\KEIL_V5\C51\LIB\C51L.LIB (?C?CLDPTR)
  D:\KEIL_V5\C51\LIB\C51L.LIB (?C?CLDOPTR)
  D:\KEIL_V5\C51\LIB\C51L.LIB (?C?CILDPTR)
BL51 BANKED LINKER/LOCATER V6.22.2.0                                                  11/11/2022  18:17:38  PAGE 2


  D:\KEIL_V5\C51\LIB\C51L.LIB (?C?CSTPTR)
  D:\KEIL_V5\C51\LIB\C51L.LIB (?C?CSTOPTR)
  D:\KEIL_V5\C51\LIB\C51L.LIB (?C?IMUL)
  D:\KEIL_V5\C51\LIB\C51L.LIB (?C?UIDIV)
  D:\KEIL_V5\C51\LIB\C51L.LIB (?C?IILDX)
  D:\KEIL_V5\C51\LIB\C51L.LIB (?C?ILDIX)
  D:\KEIL_V5\C51\LIB\C51L.LIB (?C?LMUL)
  D:\KEIL_V5\C51\LIB\C51L.LIB (?C?ULDIV)
  D:\KEIL_V5\C51\LIB\C51L.LIB (?C?LNEG)
  D:\KEIL_V5\C51\LIB\C51L.LIB (?C?ULSHR)
  D:\KEIL_V5\C51\LIB\C51L.LIB (?C?LSTXDATA)
  D:\KEIL_V5\C51\LIB\C51L.LIB (?C?LSTKXDATA)
  D:\KEIL_V5\C51\LIB\C51L.LIB (?C?CCASE)
  D:\KEIL_V5\C51\LIB\C51L.LIB (?C?MEMSET)


LINK MAP OF MODULE:  .\Output\Temp_Humi_CO2 (MAIN_C)


            TYPE    BASE      LENGTH    RELOCATION   SEGMENT NAME
            -----------------------------------------------------

            * * * * * * *   D A T A   M E M O R Y   * * * * * * *
            REG     0000H     0008H     ABSOLUTE     "REG BANK 0"
            DATA    0008H     0003H     UNIT         ?DT?COMMON
                    000BH     0015H                  *** GAP ***
            BIT     0020H.0   0000H.4   UNIT         ?BI?UART
            BIT     0020H.4   0000H.1   UNIT         ?BI?UART2
            BIT     0020H.5   0000H.1   UNIT         ?BI?COMMON
            BIT     0020H.6   0000H.1   UNIT         ?BI?UART3
                    0020H.7   0000H.1                *** GAP ***
            IDATA   0021H     0001H     UNIT         ?STACK

            * * * * * * *  X D A T A   M E M O R Y  * * * * * * *
            XDATA   0000H     0200H     UNIT         ?XD?CRC16
            XDATA   0200H     0199H     UNIT         ?XD?EEPROM_USER
            XDATA   0399H     0118H     UNIT         ?XD?ADC_USER
            XDATA   04B1H     008AH     UNIT         ?XD?_WRITEDATATOONEPAGE?EEPROM
            XDATA   053BH     0085H     UNIT         ?XD?WIFI
            XDATA   05C0H     006AH     UNIT         ?XD?BC3602
            XDATA   062AH     0053H     UNIT         ?XD?BC3602_GATEWAY
            XDATA   067DH     003AH     UNIT         ?XD?CO2
            XDATA   06B7H     002DH     UNIT         ?XD?TIMER0
            XDATA   06E4H     0016H     UNIT         ?XD?KEY
            XDATA   06FAH     0015H     UNIT         ?XD?SHTC3
            XDATA   070FH     0012H     UNIT         _XDATA_GROUP_
            XDATA   0721H     0009H     UNIT         ?XD?_I2C_OPEN?I2C
            XDATA   072AH     0009H     UNIT         ?XD?LED
            XDATA   0733H     0008H     UNIT         ?XD?_UART2_OPEN?UART2
            XDATA   073BH     0008H     UNIT         ?XD?_UART3_OPEN?UART3
            XDATA   0743H     0008H     UNIT         ?XD?_WRITE_DATAFLASH_ARRAY?EEPROM
            XDATA   074BH     0006H     UNIT         ?XD?_WRITE_DATAFLASH_BYTE?EEPROM
            XDATA   0751H     0005H     UNIT         ?XD?_GPIO_ENABLEINT?GPIO
            XDATA   0756H     0005H     UNIT         ?XD?_UART0SENDDATA?UART2_USER
            XDATA   075BH     0005H     UNIT         ?XD?_RFWRITEBUF?BC3602
            XDATA   0760H     0004H     UNIT         ?XD?GET_NTCVALU?ADC_USER
            XDATA   0764H     0004H     UNIT         ?XD?LCD_USER
BL51 BANKED LINKER/LOCATER V6.22.2.0                                                  11/11/2022  18:17:38  PAGE 3


            XDATA   0768H     0002H     UNIT         ?XD?_ADC_INITIALCONTINOUS?ADC
            XDATA   076AH     0002H     UNIT         ?XD?UART
            XDATA   076CH     0001H     UNIT         ?XD?UART2
            XDATA   076DH     0001H     UNIT         ?XD?UART3
            XDATA   076EH     0001H     UNIT         ?XD?_PUTCHAR?UART3_USER

            * * * * * * *   C O D E   M E M O R Y   * * * * * * *
            CODE    0000H     0003H     ABSOLUTE     
            CODE    0003H     0008H     UNIT         ?PR?_READ_APROM_BYTE?COMMON
            CODE    000BH     0003H     ABSOLUTE     
            CODE    000EH     0015H     UNIT         ?PR?_UART2_SEND_DATA?UART2
            CODE    0023H     0003H     ABSOLUTE     
            CODE    0026H     0015H     UNIT         ?PR?_SPIWRITEREGCMD?BC3602
            CODE    003BH     0003H     ABSOLUTE     
            CODE    003EH     003DH     UNIT         ?PR?_LCD_CURRENT_MODE?LCD
            CODE    007BH     0003H     ABSOLUTE     
            CODE    007EH     001DH     UNIT         ?PR?UART3_RECEIVE_DATA?UART3
            CODE    009BH     0003H     ABSOLUTE     
            CODE    009EH     0014H     UNIT         ?PR?_UART3_SEND_DATA?UART3
            CODE    00B2H     0001H     UNIT         ?PR?I2C_ERROR?SHTC3
            CODE    00B3H     0003H     ABSOLUTE     
            CODE    00B6H     07C8H     UNIT         ?C?LIB_CODE
            CODE    087EH     04E7H     UNIT         ?PR?_GET_TEMP_BAT?ADC_USER
            CODE    0D65H     0429H     UNIT         ?PR?_VOLTAGE_DISPLAY?ADC_USER
            CODE    118EH     0406H     UNIT         ?PR?_TEMPHUB_DISPLAY_ON?LCD_USER
            CODE    1594H     0344H     UNIT         ?PR?_GPIO_ENABLEINT?GPIO
            CODE    18D8H     0313H     UNIT         ?PR?_DISPLAY_CO2?CO2
            CODE    1BEBH     02FDH     UNIT         ?C_INITSEG
            CODE    1EE8H     02E7H     UNIT         ?PR?GET_KEYVALUE?KEY
            CODE    21CFH     02DAH     UNIT         ?PR?_ADC_OPEN?ADC
            CODE    24A9H     02C2H     UNIT         ?PR?EEPROM_READDATAINIT?EEPROM_USER
            CODE    276BH     02B4H     UNIT         ?PR?_RGB_COLOR?LED
            CODE    2A1FH     02A3H     UNIT         ?PR?_WRITEDATATOONEPAGE?EEPROM
            CODE    2CC2H     027DH     UNIT         ?PR?RF_INIT?BC3602
            CODE    2F3FH     0275H     UNIT         ?PR?_PWM0_CONFIGOUTPUTCHANNEL?PWM0
            CODE    31B4H     0275H     UNIT         ?PR?BAT_POWERDISPLAY?ADC_USER
            CODE    3429H     0203H     UNIT         ?PR?TIMER0_ISR?TIMER0
            CODE    362CH     01DEH     UNIT         ?PR?GET_TEMPHUT?SHTC3
            CODE    380AH     01A3H     UNIT         ?PR?TEMPHUB_DISPLAY_OFF?LCD_USER
            CODE    39ADH     0198H     UNIT         ?PR?_PWM123_CLOCKSOURCE?PWM123
            CODE    3B45H     0191H     UNIT         ?PR?KEYPROCESS?KEY
            CODE    3CD6H     018EH     UNIT         ?PR?GET_AVG_VALU_24H?EEPROM_USER
            CODE    3E64H     017FH     UNIT         ?PR?_LCD_DISPLAY_TEMPHUB?LCD_USER
            CODE    3FE3H     017DH     UNIT         ?PR?_UART_OPEN?UART
            CODE    4160H     017DH     UNIT         ?PR?_EEPROM_WRITE_SENSORDATA?EEPROM_USER
            CODE    42DDH     0179H     UNIT         ?PR?_WRITE_DATAFLASH_BYTE?EEPROM
            CODE    4456H     016DH     UNIT         ?PR?LED_BUZ?LED
            CODE    45C3H     0164H     UNIT         ?PR?_SEND_NETWORKENTRY?WIFI
            CODE    4727H     014BH     UNIT         ?PR?_PREPARE_SENDDATA?BC3602_GATEWAY
            CODE    4872H     0148H     UNIT         ?PR?_SHOWDIGIT?LCD_USER
            CODE    49BAH     013EH     UNIT         ?PR?_WRITE_DATAFLASH?EEPROM_USER
            CODE    4AF8H     013BH     UNIT         ?PR?TIME_PROCESS?TIMER0
            CODE    4C33H     0125H     UNIT         ?PR?INIT_LCD?LCD_USER
            CODE    4D58H     0120H     UNIT         ?PR?_FSYSSELECT?SYS
            CODE    4E78H     011CH     UNIT         ?PR?_I2C_READ?SHTC3
            CODE    4F94H     0113H     UNIT         ?PR?_PWM123_CONFIGOUTPUTCHANNEL?PWM123
            CODE    50A7H     00EDH     UNIT         ?PR?_SIMPLEFIFO_RX_PROCESS?BC3602
BL51 BANKED LINKER/LOCATER V6.22.2.0                                                  11/11/2022  18:17:38  PAGE 4


            CODE    5194H     00EBH     UNIT         ?PR?_ADC_VREF_SET?ADC
            CODE    527FH     00E4H     UNIT         ?PR?_LED_LOW_LIGHT?LED
            CODE    5363H     00D5H     UNIT         ?PR?_GPIO_SETMODE?GPIO
            CODE    5438H     00D5H     UNIT         ?PR?_I2C_WRITE?SHTC3
            CODE    550DH     00D0H     UNIT         ?PR?LED_INIT?LED
            CODE    55DDH     00C1H     UNIT         ?PR?_WRITE_DATAFLASH_ARRAY?EEPROM
            CODE    569EH     00BFH     UNIT         ?PR?_SIMPLEFIFO_TX_PROCESS?BC3602
            CODE    575DH     00BDH     UNIT         ?PR?_CLOCKENABLE?SYS
            CODE    581AH     00B4H     UNIT         ?PR?_UART3_OPEN?UART3
            CODE    58CEH     00AEH     UNIT         ?PR?_UART2_OPEN?UART2
            CODE    597CH     00ABH     UNIT         ?PR?UART1_ISR?CO2
            CODE    5A27H     009BH     UNIT         ?PR?_GPIO_PULL_DISABLE?GPIO
            CODE    5AC2H     009AH     UNIT         ?C_C51STARTUP
            CODE    5B5CH     0096H     UNIT         ?PR?RECIEVE_DATA_ANALYSIS?CO2
            CODE    5BF2H     0087H     UNIT         ?PR?_GPIO_PULL_ENABLE?GPIO
            CODE    5C79H     0085H     UNIT         ?PR?BUZ_ON?LED
            CODE    5CFEH     0084H     UNIT         ?PR?_CLOCKDISABLE?SYS
            CODE    5D82H     007DH     UNIT         ?PR?_I2C_READ_PROCESS?SHTC3
            CODE    5DFFH     007AH     UNIT         ?PR?_KEY_BC3602?BC3602
            CODE    5E79H     0078H     UNIT         ?PR?GET_MAX_VALU_24H?EEPROM_USER
            CODE    5EF1H     0077H     UNIT         ?PR?READ_BANDGAP?ADC
            CODE    5F68H     0071H     UNIT         ?PR?_ADC_RUN?ADC_USER
            CODE    5FD9H     0070H     UNIT         ?PR?ADC_INIT?ADC_USER
            CODE    6049H     0070H     UNIT         ?PR?_BC3602_WRITEREGISTER?BC3602_SPI
            CODE    60B9H     006EH     UNIT         ?PR?_PWM0_CLOCKSOURCE?PWM0
            CODE    6127H     006EH     UNIT         ?PR?_PWM1_CLOCKSOURCE?PWM0
            CODE    6195H     006DH     UNIT         ?PR?GET_NTCVALU?ADC_USER
            CODE    6202H     006AH     UNIT         ?PR?_I2C_OPEN?I2C
            CODE    626CH     0068H     UNIT         ?PR?_READ_DATAFLASH_ARRAY?EEPROM
            CODE    62D4H     0063H     UNIT         ?PR?_ADC_ENABLEHWTRIGGER?ADC
            CODE    6337H     005FH     UNIT         ?PR?_I2C_WRITE_PROCESS?SHTC3
            CODE    6396H     005CH     UNIT         ?PR?_PWM0_DEADZONEENABLE?PWM0
            CODE    63F2H     005CH     UNIT         ?PR?FSYSSWITCHERROR?SYS
            CODE    644EH     005BH     UNIT         ?PR?BC3602_INTERFACECONFIGURE?BC3602
            CODE    64A9H     0059H     UNIT         ?PR?_CRC8_NRSC5?CRC8_NRSC5
            CODE    6502H     0059H     UNIT         ?PR?INIT_I2C?SHTC3
            CODE    655BH     0059H     UNIT         ?PR?BC3602_RF_PROCESS?BC3602
            CODE    65B4H     0057H     UNIT         ?PR?_I2C_SETSLAVEADDRMASK?I2C
            CODE    660BH     0057H     UNIT         ?PR?GET_CO2_VERSIONNUM?CO2
            CODE    6662H     0054H     UNIT         ?PR?GET_CO2VALU?CO2
            CODE    66B6H     0052H     UNIT         ?PR?RGB_COLOR_OFF?LED
            CODE    6708H     0052H     UNIT         ?PR?BLU_COLOR?LED
            CODE    675AH     0052H     UNIT         ?PR?_CRC16MODBUS?CRC16
            CODE    67ACH     0051H     UNIT         ?PR?_CLOCKSWITCH?SYS
            CODE    67FDH     004FH     UNIT         ?PR?_WRITEFIFO?BC3602
            CODE    684CH     004FH     UNIT         ?PR?_READFIFO?BC3602
            CODE    689BH     004BH     UNIT         ?PR?_LCD_OPEN?LCD
            CODE    68E6H     0048H     UNIT         ?PR?_RFWRITEBUF?BC3602
            CODE    692EH     0046H     UNIT         ?PR?INIT_UART1?UART1_USER
            CODE    6974H     0043H     UNIT         ?PR?INIT_UART0?UART2_USER
            CODE    69B7H     0041H     UNIT         ?PR?_GET_CHECKSUM?BC3602_GATEWAY
            CODE    69F8H     003FH     UNIT         ?PR?_UART1SENDDATA?UART1_USER
            CODE    6A37H     003FH     UNIT         ?PR?_UART0SENDDATA?UART2_USER
            CODE    6A76H     003EH     UNIT         ?PR?WDT_INIT?WDT
            CODE    6AB4H     003CH     UNIT         ?PR?_LCD_SETALLPIXELS?LCD
            CODE    6AF0H     003AH     UNIT         ?PR?INIT_UART3?UART3_USER
            CODE    6B2AH     0039H     UNIT         ?PR?_BC3602_STROBECOMMAND?BC3602_SPI
BL51 BANKED LINKER/LOCATER V6.22.2.0                                                  11/11/2022  18:17:38  PAGE 5


            CODE    6B63H     0038H     UNIT         ?PR?MAIN?MAIN_C
            CODE    6B9BH     0035H     UNIT         ?PR?FEED_WDT?WDT
            CODE    6BD0H     0035H     UNIT         ?PR?RF_FINISHED_PROCESS?BC3602
            CODE    6C05H     0035H     UNIT         ?PR?_SPIWRITE?BC3602_SPI
            CODE    6C3AH     0034H     UNIT         ?PR?SPIREAD?BC3602_SPI
            CODE    6C6EH     0031H     UNIT         ?PR?ENABLE_UART0_VCOM_PRINTF?UART
            CODE    6C9FH     002FH     UNIT         ?PR?PININTERRUPT_ISR?BC3602
            CODE    6CCEH     002EH     UNIT         ?PR?_ADC_INTERRUPT?ADC
            CODE    6CFCH     002DH     UNIT         ?PR?_ADC_INITIALCONTINOUS?ADC
            CODE    6D29H     002DH     UNIT         ?PR?_UART_INTERRUPT_ENABLE?UART
            CODE    6D56H     002CH     UNIT         ?PR?INIT_KEYPORT?KEY
            CODE    6D82H     002BH     UNIT         ?PR?_LCD_INTERRUPT_INITIAL?LCD
            CODE    6DADH     0029H     UNIT         ?PR?BC3602_TX_PROCESS?BC3602_GATEWAY
            CODE    6DD6H     0029H     UNIT         ?PR?_SET_RFSDIO_DIR?BC3602_SPI
            CODE    6DFFH     0027H     UNIT         ?PR?_LCD_SETONEPIXEL?LCD
            CODE    6E26H     0025H     UNIT         ?PR?_GET_CS?CO2
            CODE    6E4BH     0024H     UNIT         ?PR?IS_IIC_OVERTIME?SHTC3
            CODE    6E6FH     0023H     UNIT         ?PR?GET_NTC_TEMP?ADC_USER
            CODE    6E92H     0022H     UNIT         ?PR?BUZ_OFF?LED
            CODE    6EB4H     0021H     UNIT         ?PR?_UART_SEND_DATA?UART
            CODE    6ED5H     0020H     UNIT         ?PR?_LCD_CLOCK_SETTING?LCD
            CODE    6EF5H     0020H     UNIT         ?PR?_LCD_POWERDOWN_DISPLAY?LCD
            CODE    6F15H     001FH     UNIT         ?PR?UART0_ISR?WIFI
            CODE    6F34H     001EH     UNIT         ?PR?_UART_RECEIVE_DATA?UART
            CODE    6F52H     001EH     UNIT         ?PR?BC3602_SPI_IOCONFIG?BC3602_SPI
            CODE    6F70H     001DH     UNIT         ?PR?GET_CO2_DATA?CO2
            CODE    6F8DH     001CH     UNIT         ?PR?SMC1_ISR?UART3
            CODE    6FA9H     001CH     UNIT         ?PR?TIMER0_INIT?TIMER0
            CODE    6FC5H     001BH     UNIT         ?PR?_ADC_SAMPLINGTIME?ADC
            CODE    6FE0H     001AH     UNIT         ?PR?SMC0_ISR?UART2
            CODE    6FFAH     0019H     UNIT         ?PR?_DATA_PROCESS?BC3602
            CODE    7013H     0018H     UNIT         ?PR?_I2C_ENABLEINT?I2C
            CODE    702BH     0018H     UNIT         ?PR?_I2C_DISABLEINT?I2C
            CODE    7043H     0017H     UNIT         ?PR?SW_RESET?SYS
            CODE    705AH     0016H     UNIT         ?PR?_SET_RFMODE?BC3602
            CODE    7070H     0013H     UNIT         ?PR?_I2C_GETSTATUS?I2C
            CODE    7083H     0013H     UNIT         ?PR?_I2C_SLAVE_ADDRESS_MASK_DISABLE?I2C
            CODE    7096H     0012H     UNIT         ?PR?_I2C_CLOSE?I2C
            CODE    70A8H     0012H     UNIT         ?PR?_I2C_ENABLETIMEOUT?I2C
            CODE    70BAH     0012H     UNIT         ?PR?_I2C_DISABLETIMEOUT?I2C
            CODE    70CCH     0012H     UNIT         ?PR?_I2C_CLEARTIMEOUTFLAG?I2C
            CODE    70DEH     0011H     UNIT         ?PR?UART2_RECEIVE_ONE_BYTE?UART2
            CODE    70EFH     0011H     UNIT         ?PR?_I2C_SLAVE_ADDRESS_MASK_ENABLE?I2C
            CODE    7100H     0011H     UNIT         ?PR?PWM0_DEADZONE_ALL_DISABLE?PWM0
            CODE    7111H     000FH     UNIT         ?PR?_LCD_BLINK?LCD
            CODE    7120H     000EH     UNIT         ?PR?_PUTCHAR?UART3_USER
            CODE    712EH     000DH     UNIT         ?PR?GET_MAX_VALU_CO2_24H?EEPROM_USER
            CODE    713BH     000DH     UNIT         ?PR?GET_AVG_VALU_CO2_24H?EEPROM_USER
            CODE    7148H     000CH     UNIT         ?PR?CO2_INIT?CO2
            CODE    7154H     000CH     UNIT         ?PR?INIT_WIFI?WIFI
            CODE    7160H     000BH     UNIT         ?PR?_SPIREADREGCMD?BC3602
            CODE    716BH     000BH     UNIT         ?PR?_BC3602_REGISTERBANK?BC3602_SPI
            CODE    7176H     000AH     UNIT         ?PR?LCD_ENABLE?LCD
            CODE    7180H     0009H     UNIT         ?PR?GET_NTC_INIT?ADC_USER
            CODE    7189H     0009H     UNIT         ?PR?GET_CO2VALUE?CO2
            CODE    7192H     0009H     UNIT         ?PR?GET_TEMPVALUE?SHTC3
            CODE    719BH     0009H     UNIT         ?PR?GET_HUBVALUE?SHTC3
BL51 BANKED LINKER/LOCATER V6.22.2.0                                                  11/11/2022  18:17:38  PAGE 6


            CODE    71A4H     0009H     UNIT         ?PR?GET_NTCTEMP?TIMER0
            CODE    71ADH     0008H     UNIT         ?PR?SET_KEY_BLUCORLOR_ENABLE?KEY
            CODE    71B5H     0008H     UNIT         ?PR?SET_KEY_BLUCORLOR_DISABLE?KEY
            CODE    71BDH     0008H     UNIT         ?PR?_SPIWRITESTROBECMD?BC3602
            CODE    71C5H     0007H     UNIT         ?PR?ADC_CLOSE?ADC
            CODE    71CCH     0007H     UNIT         ?PR?ADC_DISABLEHWTRIGGER?ADC
            CODE    71D3H     0007H     UNIT         ?PR?PWM0_RUN?PWM0
            CODE    71DAH     0007H     UNIT         ?PR?PWM0_STOP?PWM0
            CODE    71E1H     0007H     UNIT         ?PR?LCD_DISABLE?LCD
            CODE    71E8H     0007H     UNIT         ?PR?SET_TEMPPOSITIVE?SHTC3
            CODE    71EFH     0006H     UNIT         ?PR?GET_LIGHT_STA?KEY
            CODE    71F5H     0006H     UNIT         ?PR?GET_BELL_STA?KEY
            CODE    71FBH     0006H     UNIT         ?PR?GET_UNIT_STA?KEY
            CODE    7201H     0006H     UNIT         ?PR?GET_COLOR_STA?KEY
            CODE    7207H     0006H     UNIT         ?PR?GET_CO2DISMOD?KEY
            CODE    720DH     0006H     UNIT         ?PR?GET_WIFI_KEY_STA?KEY
            CODE    7213H     0006H     UNIT         ?PR?GET_ACCESSNET_REQUEST?KEY
            CODE    7219H     0006H     UNIT         ?PR?CLR_ACCESSNET_REQUEST?KEY
            CODE    721FH     0006H     UNIT         ?PR?LCD_DISPLAY?LCD_USER
            CODE    7225H     0006H     UNIT         ?PR?INIT_SHTC3?SHTC3
            CODE    722BH     0006H     UNIT         ?PR?GET_TEMPPOSITIVE?SHTC3
            CODE    7231H     0006H     UNIT         ?PR?GET_TEMPHUTSTARTFLAG?TIMER0
            CODE    7237H     0006H     UNIT         ?PR?CLR__TEMPHUTSTARTFLAG?TIMER0
            CODE    723DH     0006H     UNIT         ?PR?GET_SAVEADDR?TIMER0
            CODE    7243H     0006H     UNIT         ?PR?GET_ONECIRCLESAVEFLAG?TIMER0
            CODE    7249H     0006H     UNIT         ?PR?_SET_ONECIRCLE_FLAG?TIMER0
            CODE    724FH     0006H     UNIT         ?PR?_SET_SAVE_ADDRP?TIMER0
            CODE    7255H     0006H     UNIT         ?PR?GET_TEMPHUB_STA?TIMER0
            CODE    725BH     0006H     UNIT         ?PR?GET_RF_MODE?BC3602
            CODE    7261H     0006H     UNIT         ?PR?RESET_RFSTEP?BC3602
            CODE    7267H     0006H     UNIT         ?PR?BC3602_ENTERLIGHTSLEEP?BC3602_SPI



OVERLAY MAP OF MODULE:   .\Output\Temp_Humi_CO2 (MAIN_C)


SEGMENT                                            XDATA_GROUP
  +--> CALLED SEGMENT                            START    LENGTH
----------------------------------------------------------------
?C_C51STARTUP                                    -----    -----
  +--> ?PR?MAIN?MAIN_C
  +--> ?C_INITSEG

?PR?MAIN?MAIN_C                                  -----    -----
  +--> ?PR?_FSYSSELECT?SYS
  +--> ?PR?INIT_UART1?UART1_USER
  +--> ?PR?INIT_UART0?UART2_USER
  +--> ?PR?TIMER0_INIT?TIMER0
  +--> ?PR?LED_INIT?LED
  +--> ?PR?INIT_LCD?LCD_USER
  +--> ?PR?WDT_INIT?WDT
  +--> ?PR?INIT_I2C?SHTC3
  +--> ?PR?CO2_INIT?CO2
  +--> ?PR?ADC_INIT?ADC_USER
  +--> ?PR?INIT_KEYPORT?KEY
  +--> ?PR?EEPROM_READDATAINIT?EEPROM_USER
BL51 BANKED LINKER/LOCATER V6.22.2.0                                                  11/11/2022  18:17:38  PAGE 7


  +--> ?PR?RF_INIT?BC3602
  +--> ?PR?FEED_WDT?WDT
  +--> ?PR?TIME_PROCESS?TIMER0
  +--> ?PR?BC3602_RF_PROCESS?BC3602

?PR?_FSYSSELECT?SYS                              -----    -----
  +--> ?PR?_CLOCKENABLE?SYS
  +--> ?PR?_CLOCKSWITCH?SYS
  +--> ?PR?FSYSSWITCHERROR?SYS

?PR?INIT_UART1?UART1_USER                        -----    -----
  +--> ?PR?_UART_OPEN?UART

?PR?_UART_OPEN?UART                              070FH    0009H

?PR?INIT_UART0?UART2_USER                        -----    -----
  +--> ?PR?_UART_OPEN?UART

?PR?LED_INIT?LED                                 -----    -----
  +--> ?PR?_GPIO_SETMODE?GPIO
  +--> ?PR?_PWM123_CLOCKSOURCE?PWM123
  +--> ?PR?_PWM123_CONFIGOUTPUTCHANNEL?PWM123
  +--> ?PR?_PWM0_CLOCKSOURCE?PWM0
  +--> ?PR?_PWM0_CONFIGOUTPUTCHANNEL?PWM0
  +--> ?PR?PWM0_RUN?PWM0

?PR?_GPIO_SETMODE?GPIO                           071FH    0001H

?PR?_PWM123_CLOCKSOURCE?PWM123                   070FH    0001H

?PR?_PWM123_CONFIGOUTPUTCHANNEL?PWM123           070FH    0006H

?PR?_PWM0_CONFIGOUTPUTCHANNEL?PWM0               0710H    0009H

?PR?INIT_LCD?LCD_USER                            -----    -----
  +--> ?PR?_LCD_CLOCK_SETTING?LCD
  +--> ?PR?_LCD_OPEN?LCD
  +--> ?PR?_LCD_CURRENT_MODE?LCD
  +--> ?PR?LCD_ENABLE?LCD
  +--> ?PR?_LCD_SETALLPIXELS?LCD

?PR?_LCD_OPEN?LCD                                070FH    0005H
  +--> ?PR?LCD_DISABLE?LCD
  +--> ?PR?_LCD_SETALLPIXELS?LCD

?PR?INIT_I2C?SHTC3                               -----    -----
  +--> ?PR?_I2C_WRITE?SHTC3

?PR?_I2C_WRITE?SHTC3                             -----    -----
  +--> ?PR?I2C_ERROR?SHTC3

?PR?CO2_INIT?CO2                                 -----    -----
  +--> ?PR?_GPIO_SETMODE?GPIO

?PR?ADC_INIT?ADC_USER                            -----    -----
  +--> ?PR?_ADC_OPEN?ADC
  +--> ?PR?_ADC_SAMPLINGTIME?ADC
BL51 BANKED LINKER/LOCATER V6.22.2.0                                                  11/11/2022  18:17:38  PAGE 8


  +--> ?PR?_ADC_VREF_SET?ADC
  +--> ?PR?_GPIO_SETMODE?GPIO

?PR?EEPROM_READDATAINIT?EEPROM_USER              070FH    0005H
  +--> ?PR?_READ_DATAFLASH_ARRAY?EEPROM
  +--> ?PR?_CRC8_NRSC5?CRC8_NRSC5
  +--> ?PR?_CRC16MODBUS?CRC16
  +--> ?PR?_SET_ONECIRCLE_FLAG?TIMER0
  +--> ?PR?_SET_SAVE_ADDRP?TIMER0

?PR?_READ_DATAFLASH_ARRAY?EEPROM                 0714H    0009H

?PR?_CRC8_NRSC5?CRC8_NRSC5                       0714H    0005H

?PR?_CRC16MODBUS?CRC16                           0714H    0004H

?PR?RF_INIT?BC3602                               -----    -----
  +--> ?PR?BC3602_SPI_IOCONFIG?BC3602_SPI
  +--> ?PR?BC3602_ENTERLIGHTSLEEP?BC3602_SPI
  +--> ?PR?_BC3602_REGISTERBANK?BC3602_SPI
  +--> ?PR?_BC3602_WRITEREGISTER?BC3602_SPI

?PR?BC3602_SPI_IOCONFIG?BC3602_SPI               -----    -----
  +--> ?PR?_GPIO_SETMODE?GPIO
  +--> ?PR?_SET_RFSDIO_DIR?BC3602_SPI

?PR?_SET_RFSDIO_DIR?BC3602_SPI                   071EH    0001H
  +--> ?PR?_GPIO_SETMODE?GPIO
  +--> ?PR?_GPIO_PULL_ENABLE?GPIO

?PR?BC3602_ENTERLIGHTSLEEP?BC3602_SPI            -----    -----
  +--> ?PR?_BC3602_STROBECOMMAND?BC3602_SPI

?PR?_BC3602_STROBECOMMAND?BC3602_SPI             070FH    0001H
  +--> ?PR?_SET_RFSDIO_DIR?BC3602_SPI

?PR?_BC3602_REGISTERBANK?BC3602_SPI              -----    -----
  +--> ?PR?_BC3602_STROBECOMMAND?BC3602_SPI

?PR?_BC3602_WRITEREGISTER?BC3602_SPI             070FH    0002H
  +--> ?PR?_SET_RFSDIO_DIR?BC3602_SPI

?PR?TIME_PROCESS?TIMER0                          -----    -----
  +--> ?PR?GET_TEMPHUT?SHTC3
  +--> ?PR?RECIEVE_DATA_ANALYSIS?CO2
  +--> ?PR?KEYPROCESS?KEY
  +--> ?PR?LED_BUZ?LED
  +--> ?PR?BLU_COLOR?LED
  +--> ?PR?GET_CO2VALU?CO2
  +--> ?PR?_GET_TEMP_BAT?ADC_USER
  +--> ?PR?_EEPROM_WRITE_SENSORDATA?EEPROM_USER
  +--> ?PR?GET_MAX_VALU_24H?EEPROM_USER
  +--> ?PR?GET_AVG_VALU_24H?EEPROM_USER
  +--> ?PR?GET_TEMPVALUE?SHTC3
  +--> ?PR?GET_HUBVALUE?SHTC3
  +--> ?PR?_LCD_DISPLAY_TEMPHUB?LCD_USER
  +--> ?PR?GET_NTC_TEMP?ADC_USER
BL51 BANKED LINKER/LOCATER V6.22.2.0                                                  11/11/2022  18:17:38  PAGE 9



?PR?GET_TEMPHUT?SHTC3                            -----    -----
  +--> ?PR?_I2C_WRITE?SHTC3
  +--> ?PR?_I2C_READ?SHTC3
  +--> ?PR?_CRC8_NRSC5?CRC8_NRSC5
  +--> ?PR?CLR__TEMPHUTSTARTFLAG?TIMER0

?PR?_I2C_READ?SHTC3                              070FH    0001H
  +--> ?PR?I2C_ERROR?SHTC3

?PR?RECIEVE_DATA_ANALYSIS?CO2                    -----    -----
  +--> ?PR?_GET_CS?CO2

?PR?KEYPROCESS?KEY                               -----    -----
  +--> ?PR?GET_KEYVALUE?KEY

?PR?LED_BUZ?LED                                  -----    -----
  +--> ?PR?GET_LIGHT_STA?KEY
  +--> ?PR?GET_CO2VALUE?CO2
  +--> ?PR?GET_BELL_STA?KEY
  +--> ?PR?BUZ_OFF?LED
  +--> ?PR?BUZ_ON?LED

?PR?BUZ_OFF?LED                                  -----    -----
  +--> ?PR?_PWM123_CONFIGOUTPUTCHANNEL?PWM123

?PR?BUZ_ON?LED                                   -----    -----
  +--> ?PR?_PWM123_CONFIGOUTPUTCHANNEL?PWM123
  +--> ?PR?BUZ_OFF?LED

?PR?BLU_COLOR?LED                                -----    -----
  +--> ?PR?GET_COLOR_STA?KEY
  +--> ?PR?_RGB_COLOR?LED
  +--> ?PR?RGB_COLOR_OFF?LED

?PR?_RGB_COLOR?LED                               070FH    0001H
  +--> ?PR?PWM0_STOP?PWM0
  +--> ?PR?_PWM0_CONFIGOUTPUTCHANNEL?PWM0
  +--> ?PR?PWM0_RUN?PWM0

?PR?RGB_COLOR_OFF?LED                            -----    -----
  +--> ?PR?PWM0_STOP?PWM0
  +--> ?PR?_PWM0_CONFIGOUTPUTCHANNEL?PWM0
  +--> ?PR?PWM0_RUN?PWM0

?PR?GET_CO2VALU?CO2                              -----    -----
  +--> ?PR?_UART1SENDDATA?UART1_USER

?PR?_UART1SENDDATA?UART1_USER                    070FH    0005H
  +--> ?PR?_UART_SEND_DATA?UART

?PR?_GET_TEMP_BAT?ADC_USER                       070FH    0002H
  +--> ?PR?_ADC_RUN?ADC_USER

?PR?_EEPROM_WRITE_SENSORDATA?EEPROM_USER         070FH    0003H
  +--> ?PR?_CRC8_NRSC5?CRC8_NRSC5
  +--> ?PR?_WRITE_DATAFLASH?EEPROM_USER
BL51 BANKED LINKER/LOCATER V6.22.2.0                                                  11/11/2022  18:17:38  PAGE 10


  +--> ?PR?_READ_DATAFLASH_ARRAY?EEPROM
  +--> ?PR?GET_CO2VALUE?CO2
  +--> ?PR?GET_SAVEADDR?TIMER0
  +--> ?PR?GET_ONECIRCLESAVEFLAG?TIMER0
  +--> ?PR?_CRC16MODBUS?CRC16

?PR?_WRITE_DATAFLASH?EEPROM_USER                 0712H    0008H

?PR?GET_MAX_VALU_24H?EEPROM_USER                 070FH    0004H

?PR?GET_AVG_VALU_24H?EEPROM_USER                 070FH    0009H

?PR?_LCD_DISPLAY_TEMPHUB?LCD_USER                070FH    0004H
  +--> ?PR?_LCD_SETALLPIXELS?LCD
  +--> ?PR?GET_TEMPHUB_STA?TIMER0
  +--> ?PR?_TEMPHUB_DISPLAY_ON?LCD_USER
  +--> ?PR?TEMPHUB_DISPLAY_OFF?LCD_USER
  +--> ?PR?_LCD_SETONEPIXEL?LCD
  +--> ?PR?GET_CO2DISMOD?KEY
  +--> ?PR?_DISPLAY_CO2?CO2
  +--> ?PR?GET_LIGHT_STA?KEY
  +--> ?PR?GET_BELL_STA?KEY
  +--> ?PR?BAT_POWERDISPLAY?ADC_USER

?PR?_TEMPHUB_DISPLAY_ON?LCD_USER                 0713H    000AH
  +--> ?PR?GET_UNIT_STA?KEY
  +--> ?PR?GET_TEMPPOSITIVE?SHTC3
  +--> ?PR?_SHOWDIGIT?LCD_USER
  +--> ?PR?_LCD_SETONEPIXEL?LCD

?PR?_SHOWDIGIT?LCD_USER                          071DH    0001H

?PR?TEMPHUB_DISPLAY_OFF?LCD_USER                 -----    -----
  +--> ?PR?_LCD_SETONEPIXEL?LCD

?PR?_DISPLAY_CO2?CO2                             0713H    0007H
  +--> ?PR?_SHOWDIGIT?LCD_USER
  +--> ?PR?_LCD_SETONEPIXEL?LCD

?PR?BAT_POWERDISPLAY?ADC_USER                    -----    -----
  +--> ?PR?_LCD_SETONEPIXEL?LCD
  +--> ?PR?_VOLTAGE_DISPLAY?ADC_USER

?PR?_VOLTAGE_DISPLAY?ADC_USER                    0713H    0001H
  +--> ?PR?_LCD_SETONEPIXEL?LCD

?PR?BC3602_RF_PROCESS?BC3602                     -----    -----
  +--> ?PR?BC3602_TX_PROCESS?BC3602_GATEWAY
  +--> ?PR?_SIMPLEFIFO_TX_PROCESS?BC3602
  +--> ?PR?_SIMPLEFIFO_RX_PROCESS?BC3602
  +--> ?PR?RF_FINISHED_PROCESS?BC3602

?PR?BC3602_TX_PROCESS?BC3602_GATEWAY             -----    -----
  +--> ?PR?GET_ACCESSNET_REQUEST?KEY
  +--> ?PR?GET_RF_MODE?BC3602
  +--> ?PR?_PREPARE_SENDDATA?BC3602_GATEWAY
  +--> ?PR?CLR_ACCESSNET_REQUEST?KEY
BL51 BANKED LINKER/LOCATER V6.22.2.0                                                  11/11/2022  18:17:38  PAGE 11



?PR?_PREPARE_SENDDATA?BC3602_GATEWAY             -----    -----
  +--> ?PR?_GET_CHECKSUM?BC3602_GATEWAY
  +--> ?PR?RESET_RFSTEP?BC3602
  +--> ?PR?_SET_RFMODE?BC3602

?PR?_GET_CHECKSUM?BC3602_GATEWAY                 070FH    0003H

?PR?_SIMPLEFIFO_TX_PROCESS?BC3602                070FH    0009H
  +--> ?PR?_SPIWRITESTROBECMD?BC3602
  +--> ?PR?_SPIWRITEREGCMD?BC3602
  +--> ?PR?_WRITEFIFO?BC3602

?PR?_SPIWRITESTROBECMD?BC3602                    -----    -----
  +--> ?PR?_SPIWRITE?BC3602_SPI

?PR?_SPIWRITE?BC3602_SPI                         071DH    0001H
  +--> ?PR?_SET_RFSDIO_DIR?BC3602_SPI

?PR?_SPIWRITEREGCMD?BC3602                       0718H    0001H
  +--> ?PR?_SPIWRITE?BC3602_SPI

?PR?_WRITEFIFO?BC3602                            0718H    0005H
  +--> ?PR?_SPIWRITE?BC3602_SPI

?PR?_SIMPLEFIFO_RX_PROCESS?BC3602                070FH    0009H
  +--> ?PR?_SPIWRITESTROBECMD?BC3602
  +--> ?PR?_SPIWRITEREGCMD?BC3602
  +--> ?PR?_READFIFO?BC3602

?PR?_READFIFO?BC3602                             0718H    0005H
  +--> ?PR?_SPIWRITE?BC3602_SPI
  +--> ?PR?SPIREAD?BC3602_SPI

?PR?SPIREAD?BC3602_SPI                           071DH    0001H
  +--> ?PR?_SET_RFSDIO_DIR?BC3602_SPI

*** NEW ROOT ***************************************************

?PR?TIMER0_ISR?TIMER0                            -----    -----
  +--> ?PR?_LED_LOW_LIGHT?LED
  +--> ?PR?IS_IIC_OVERTIME?SHTC3

?PR?_LED_LOW_LIGHT?LED                           0720H    0001H
  +--> ?PR?GET_CO2VALUE?CO2



UNRESOLVED EXTERNAL SYMBOLS:
   BC3602_CRYSTALREADY
   BC3602_SOFTWARERESET
   RFGETCLRRFIRQ
   RFXTALREADY



SYMBOL TABLE OF MODULE:  .\Output\Temp_Humi_CO2 (MAIN_C)
BL51 BANKED LINKER/LOCATER V6.22.2.0                                                  11/11/2022  18:17:38  PAGE 12



  VALUE           TYPE          NAME
  ----------------------------------

  -------         MODULE        MAIN_C
  C:0000H         SYMBOL        _ICE_DUMMY_
  D:0080H         PUBLIC        P0
  D:0090H         PUBLIC        P1
  D:00A0H         PUBLIC        P2
  D:00B0H         PUBLIC        P3
  D:00D8H         PUBLIC        P4
  D:00A8H         PUBLIC        IE
  D:00B8H         PUBLIC        IP
  C:6B63H         PUBLIC        main
  D:0098H         PUBLIC        SCON
  D:0088H         PUBLIC        TCON
  D:00C0H         PUBLIC        I2C0CON
  D:00E8H         PUBLIC        I2C1CON
  D:00F8H         PUBLIC        S1CON
  D:00C8H         PUBLIC        T2CON
  D:00D0H         PUBLIC        PSW
  -------         PROC          MAIN
  C:6B63H         LINE#         4
  C:6B63H         LINE#         5
  C:6B63H         LINE#         6
  C:6B68H         LINE#         7
  C:6B6BH         LINE#         8
  C:6B6EH         LINE#         10
  C:6B71H         LINE#         11
  C:6B74H         LINE#         12
  C:6B77H         LINE#         13
  C:6B7AH         LINE#         14
  C:6B7DH         LINE#         15
  C:6B80H         LINE#         16
  C:6B83H         LINE#         17
  C:6B86H         LINE#         18
  C:6B89H         LINE#         20
  C:6B8CH         LINE#         21
  C:6B8FH         LINE#         23
  C:6B8FH         LINE#         24
  C:6B8FH         LINE#         25
  C:6B92H         LINE#         26
  C:6B95H         LINE#         27
  C:6B98H         LINE#         28
  -------         ENDPROC       MAIN
  -------         ENDMOD        MAIN_C

  -------         MODULE        UART2
  C:0000H         SYMBOL        _ICE_DUMMY_
  D:00DCH         PUBLIC        SC0ETURD1
  D:0080H         PUBLIC        P0
  D:0090H         PUBLIC        P1
  D:00A0H         PUBLIC        P2
  D:00B0H         PUBLIC        P3
  D:00D8H         PUBLIC        P4
  D:00D6H         PUBLIC        SC0CR0
  D:00D7H         PUBLIC        SC0CR1
BL51 BANKED LINKER/LOCATER V6.22.2.0                                                  11/11/2022  18:17:38  PAGE 13


  D:00A8H         PUBLIC        IE
  C:70DEH         PUBLIC        UART2_Receive_One_Byte
  D:00B8H         PUBLIC        IP
  D:0098H         PUBLIC        SCON
  D:0088H         PUBLIC        TCON
  C:000EH         PUBLIC        _UART2_Send_Data
  D:0091H         PUBLIC        SFRS
  D:00DFH         PUBLIC        SC0TSR
  D:00C0H         PUBLIC        I2C0CON
  D:00E8H         PUBLIC        I2C1CON
  X:076CH         PUBLIC        uart2rvbuffer
  D:00D9H         PUBLIC        SC0DR
  C:6FE0H         PUBLIC        SMC0_ISR
  C:58CEH         PUBLIC        _UART2_Open
  D:00F8H         PUBLIC        S1CON
  D:00C8H         PUBLIC        T2CON
  B:0020H.4       PUBLIC        uart2rvflag
  D:00D0H         PUBLIC        PSW
  D:00DBH         PUBLIC        SC0ETURD0
  -------         PROC          SMC0_ISR
  C:6FE0H         LINE#         20
  C:6FE6H         LINE#         22
  C:6FE8H         LINE#         24
  C:6FEBH         LINE#         25
  C:6FF1H         LINE#         26
  C:6FF3H         LINE#         27
  -------         ENDPROC       SMC0_ISR
  -------         PROC          _UART2_OPEN
  X:0733H         SYMBOL        u32SysClock
  X:0737H         SYMBOL        u32Baudrate
  C:58CEH         LINE#         36
  C:58D4H         LINE#         37
  C:58D4H         LINE#         38
  C:58DAH         LINE#         39
  C:58DFH         LINE#         40
  C:58E4H         LINE#         41
  C:58E9H         LINE#         42
  C:58EEH         LINE#         44
  C:5929H         LINE#         45
  C:592CH         LINE#         46
  C:596DH         LINE#         47
  C:5973H         LINE#         48
  C:5976H         LINE#         49
  C:597BH         LINE#         50
  -------         ENDPROC       _UART2_OPEN
  -------         PROC          UART2_RECEIVE_ONE_BYTE
  -------         DO            
  D:0007H         SYMBOL        c
  -------         ENDDO         
  C:70DEH         LINE#         59
  C:70DEH         LINE#         60
  C:70DEH         LINE#         62
  C:70E4H         LINE#         63
  C:70ECH         LINE#         64
  C:70EEH         LINE#         65
  C:70EEH         LINE#         66
  -------         ENDPROC       UART2_RECEIVE_ONE_BYTE
BL51 BANKED LINKER/LOCATER V6.22.2.0                                                  11/11/2022  18:17:38  PAGE 14


  -------         PROC          _UART2_SEND_DATA
  D:0007H         SYMBOL        c
  C:000EH         LINE#         75
  C:000EH         LINE#         76
  C:000EH         LINE#         77
  C:0014H         LINE#         78
  C:0016H         LINE#         79
  C:001CH         LINE#         80
  C:0022H         LINE#         81
  -------         ENDPROC       _UART2_SEND_DATA
  -------         ENDMOD        UART2

  -------         MODULE        COMMON
  C:0000H         SYMBOL        _ICE_DUMMY_
  D:0080H         PUBLIC        P0
  D:0090H         PUBLIC        P1
  D:00A0H         PUBLIC        P2
  D:00B0H         PUBLIC        P3
  D:00D8H         PUBLIC        P4
  D:0008H         PUBLIC        BYTE_TMP
  D:00A8H         PUBLIC        IE
  D:0009H         PUBLIC        SFRS_TMP
  D:00B8H         PUBLIC        IP
  D:000AH         PUBLIC        TA_REG_TMP
  B:0020H.5       PUBLIC        BIT_TMP
  D:0098H         PUBLIC        SCON
  D:0088H         PUBLIC        TCON
  D:00C0H         PUBLIC        I2C0CON
  D:00E8H         PUBLIC        I2C1CON
  D:00F8H         PUBLIC        S1CON
  D:00C8H         PUBLIC        T2CON
  C:0003H         PUBLIC        _Read_APROM_BYTE
  D:00D0H         PUBLIC        PSW
  -------         PROC          _READ_APROM_BYTE
  D:0082H         SYMBOL        u16_addr
  -------         DO            
  D:0007H         SYMBOL        rdata
  -------         ENDDO         
  C:0003H         LINE#         17
  C:0007H         LINE#         18
  C:0007H         LINE#         20
  C:000AH         LINE#         21
  C:000AH         LINE#         22
  -------         ENDPROC       _READ_APROM_BYTE
  -------         ENDMOD        COMMON

  -------         MODULE        ADC
  C:0000H         SYMBOL        _ICE_DUMMY_
  D:00F4H         PUBLIC        P2MF54
  D:0080H         PUBLIC        P0
  D:00B5H         PUBLIC        P2M1
  D:0090H         PUBLIC        P1
  D:00C2H         PUBLIC        P3M1
  D:00B6H         PUBLIC        P2M2
  D:00A0H         PUBLIC        P2
  D:00C3H         PUBLIC        P3M2
  D:00B0H         PUBLIC        P3
BL51 BANKED LINKER/LOCATER V6.22.2.0                                                  11/11/2022  18:17:38  PAGE 15


  D:00F5H         PUBLIC        P2MF76
  D:0094H         PUBLIC        P6MF54
  D:00D8H         PUBLIC        P4
  D:0084H         PUBLIC        P6M1
  B:00A8H.7       PUBLIC        EA
  D:0085H         PUBLIC        P6M2
  D:0095H         PUBLIC        P6MF76
  D:00A8H         PUBLIC        IE
  D:00E4H         PUBLIC        ADCBAH
  D:00C7H         PUBLIC        TA
  D:00CBH         PUBLIC        ADCBAL
  D:00B8H         PUBLIC        IP
  C:71C5H         PUBLIC        ADC_Close
  D:00CEH         PUBLIC        AINDIDS0
  D:00CEH         PUBLIC        AINDIDS1
  D:00E3H         PUBLIC        ADCDLY
  D:0098H         PUBLIC        SCON
  D:0088H         PUBLIC        TCON
  D:009FH         PUBLIC        CHPCON
  C:21CFH         PUBLIC        _ADC_Open
  D:0091H         PUBLIC        SFRS
  C:6CFCH         PUBLIC        _ADC_InitialContinous
  D:00A4H         PUBLIC        IAPTRG
  C:5194H         PUBLIC        _ADC_Vref_Set
  D:00A9H         PUBLIC        VRFCON
  D:00C0H         PUBLIC        I2C0CON
  D:00E8H         PUBLIC        I2C1CON
  D:00A1H         PUBLIC        ADCCON0
  D:00E1H         PUBLIC        ADCCON1
  C:71CCH         PUBLIC        ADC_DisableHWTrigger
  D:00E2H         PUBLIC        ADCCON2
  D:00A7H         PUBLIC        IAPAH
  D:00F8H         PUBLIC        S1CON
  D:00AEH         PUBLIC        IAPFD
  D:00C8H         PUBLIC        T2CON
  D:00A6H         PUBLIC        IAPAL
  D:00E5H         PUBLIC        ADCSN
  D:00AFH         PUBLIC        IAPCN
  C:5EF1H         PUBLIC        READ_BANDGAP
  C:62D4H         PUBLIC        _ADC_EnableHWTrigger
  D:00E7H         PUBLIC        ADCSR
  D:00F2H         PUBLIC        P2MF10
  D:00F6H         PUBLIC        P3MF10
  D:00D0H         PUBLIC        PSW
  D:00F3H         PUBLIC        P2MF32
  C:6FC5H         PUBLIC        _ADC_SamplingTime
  D:00F7H         PUBLIC        P3MF32
  C:6CCEH         PUBLIC        _ADC_Interrupt
  -------         PROC          _ADC_OPEN
  D:0006H         SYMBOL        u8ADCOpMode
  D:0005H         SYMBOL        u8ADCChMask
  C:21CFH         LINE#         29
  C:21CFH         LINE#         30
  C:21CFH         LINE#         31
  C:21DAH         LINE#         32
  C:21DAH         LINE#         33
  C:21E2H         LINE#         34
BL51 BANKED LINKER/LOCATER V6.22.2.0                                                  11/11/2022  18:17:38  PAGE 16


  C:21E8H         LINE#         35
  C:21E8H         LINE#         36
  C:21E8H         LINE#         38
  C:222BH         LINE#         39
  C:222BH         LINE#         40
  C:2251H         LINE#         41
  C:227AH         LINE#         42
  C:22A3H         LINE#         43
  C:22CCH         LINE#         44
  C:22F5H         LINE#         45
  C:231EH         LINE#         46
  C:2347H         LINE#         47
  C:2370H         LINE#         48
  C:239BH         LINE#         49
  C:23C6H         LINE#         50
  C:23F1H         LINE#         51
  C:241CH         LINE#         52
  C:2446H         LINE#         53
  C:2470H         LINE#         54
  C:2488H         LINE#         55
  C:2496H         LINE#         56
  C:24A2H         LINE#         57
  C:24A2H         LINE#         58
  C:24A2H         LINE#         59
  C:24A8H         LINE#         61
  -------         ENDPROC       _ADC_OPEN
  -------         PROC          ADC_CLOSE
  C:71C5H         LINE#         68
  C:71C5H         LINE#         69
  C:71C5H         LINE#         70
  C:71CBH         LINE#         71
  -------         ENDPROC       ADC_CLOSE
  -------         PROC          _ADC_INITIALCONTINOUS
  X:0768H         SYMBOL        u16ADCRBase
  D:0005H         SYMBOL        u8ADCRLength
  D:0003H         SYMBOL        u8ADCSpeed
  C:6CFCH         LINE#         84
  C:6D04H         LINE#         85
  C:6D04H         LINE#         86
  C:6D07H         LINE#         87
  C:6D0AH         LINE#         88
  C:6D10H         LINE#         89
  C:6D14H         LINE#         90
  C:6D1BH         LINE#         91
  C:6D1BH         LINE#         92
  C:6D22H         LINE#         93
  C:6D28H         LINE#         94
  C:6D28H         LINE#         95
  C:6D28H         LINE#         96
  -------         ENDPROC       _ADC_INITIALCONTINOUS
  -------         PROC          _ADC_SAMPLINGTIME
  D:0007H         SYMBOL        u8ADCDIV
  D:0005H         SYMBOL        u8ADCAQT
  C:6FC5H         LINE#         107
  C:6FC5H         LINE#         108
  C:6FC5H         LINE#         109
  C:6FC8H         LINE#         110
BL51 BANKED LINKER/LOCATER V6.22.2.0                                                  11/11/2022  18:17:38  PAGE 17


  C:6FCBH         LINE#         111
  C:6FD4H         LINE#         112
  C:6FD7H         LINE#         113
  C:6FDFH         LINE#         114
  -------         ENDPROC       _ADC_SAMPLINGTIME
  -------         PROC          _ADC_ENABLEHWTRIGGER
  D:0007H         SYMBOL        u8ADCSHWTource
  D:0005H         SYMBOL        u8ADCHWTParam
  D:0003H         SYMBOL        u8ADCHWTDelay
  C:62D4H         LINE#         138
  C:62D4H         LINE#         139
  C:62D4H         LINE#         140
  C:62D7H         LINE#         141
  C:62E5H         LINE#         142
  C:62E5H         LINE#         143
  C:62EAH         LINE#         144
  C:62F2H         LINE#         145
  C:62FAH         LINE#         146
  C:6300H         LINE#         147
  C:6300H         LINE#         148
  C:6300H         LINE#         149
  C:630EH         LINE#         150
  C:630EH         LINE#         151
  C:6313H         LINE#         152
  C:631BH         LINE#         153
  C:6323H         LINE#         154
  C:6329H         LINE#         155
  C:6329H         LINE#         156
  C:6329H         LINE#         157
  C:632DH         LINE#         158
  C:6333H         LINE#         159
  C:6336H         LINE#         160
  -------         ENDPROC       _ADC_ENABLEHWTRIGGER
  -------         PROC          ADC_DISABLEHWTRIGGER
  C:71CCH         LINE#         162
  C:71CCH         LINE#         163
  C:71CCH         LINE#         164
  C:71D2H         LINE#         165
  -------         ENDPROC       ADC_DISABLEHWTRIGGER
  -------         PROC          _ADC_INTERRUPT
  D:0007H         SYMBOL        u8ADCINT
  D:0005H         SYMBOL        u8ADCIntSource
  C:6CCEH         LINE#         182
  C:6CCEH         LINE#         183
  C:6CCEH         LINE#         184
  C:6CD1H         LINE#         185
  C:6CD8H         LINE#         186
  C:6CD8H         LINE#         187
  C:6CD8H         LINE#         188
  C:6CDBH         LINE#         189
  C:6CDCH         LINE#         191
  C:6CDCH         LINE#         192
  C:6CE8H         LINE#         193
  C:6CE8H         LINE#         194
  C:6CEDH         LINE#         195
  C:6CF5H         LINE#         196
  C:6CF8H         LINE#         197
BL51 BANKED LINKER/LOCATER V6.22.2.0                                                  11/11/2022  18:17:38  PAGE 18


  C:6CF8H         LINE#         198
  C:6CF8H         LINE#         199
  C:6CFBH         LINE#         200
  C:6CFBH         LINE#         201
  C:6CFBH         LINE#         202
  C:6CFBH         LINE#         203
  -------         ENDPROC       _ADC_INTERRUPT
  -------         PROC          READ_BANDGAP
  -------         DO            
  D:0007H         SYMBOL        BandgapHigh
  D:0005H         SYMBOL        BandgapLow
  D:0006H         SYMBOL        u16bgvalue
  -------         ENDDO         
  C:5EF1H         LINE#         211
  C:5EF1H         LINE#         212
  C:5EF1H         LINE#         215
  C:5F07H         LINE#         216
  C:5F0AH         LINE#         217
  C:5F0DH         LINE#         218
  C:5F0FH         LINE#         219
  C:5F24H         LINE#         220
  C:5F29H         LINE#         221
  C:5F2CH         LINE#         222
  C:5F42H         LINE#         223
  C:5F44H         LINE#         224
  C:5F51H         LINE#         225
  C:5F67H         LINE#         226
  C:5F67H         LINE#         227
  -------         ENDPROC       READ_BANDGAP
  -------         PROC          _ADC_VREF_SET
  D:0007H         SYMBOL        u8ADCVref
  D:0005H         SYMBOL        u8ADCVrefPreload
  D:0003H         SYMBOL        u8ADCVrefLevel
  C:5194H         LINE#         241
  C:5194H         LINE#         242
  C:5194H         LINE#         243
  C:519BH         LINE#         244
  C:519BH         LINE#         245
  C:519BH         LINE#         246
  C:51B1H         LINE#         247
  C:51B3H         LINE#         248
  C:51B3H         LINE#         249
  C:51C9H         LINE#         250
  C:51C9H         LINE#         251
  C:51C9H         LINE#         252
  C:51C9H         LINE#         254
  C:51D0H         LINE#         255
  C:51D0H         LINE#         256
  C:51D0H         LINE#         257
  C:51E6H         LINE#         258
  C:51E8H         LINE#         259
  C:51E8H         LINE#         260
  C:51FEH         LINE#         261
  C:51FEH         LINE#         262
  C:51FEH         LINE#         263
  C:51FEH         LINE#         264
  C:520FH         LINE#         265
BL51 BANKED LINKER/LOCATER V6.22.2.0                                                  11/11/2022  18:17:38  PAGE 19


  C:520FH         LINE#         266
  C:520FH         LINE#         267
  C:5222H         LINE#         268
  C:5223H         LINE#         269
  C:5223H         LINE#         270
  C:5239H         LINE#         271
  C:523AH         LINE#         272
  C:523AH         LINE#         273
  C:5250H         LINE#         274
  C:5251H         LINE#         275
  C:5251H         LINE#         276
  C:5267H         LINE#         277
  C:5268H         LINE#         278
  C:5268H         LINE#         279
  C:527EH         LINE#         280
  C:527EH         LINE#         281
  C:527EH         LINE#         283
  C:527EH         LINE#         286
  -------         ENDPROC       _ADC_VREF_SET
  -------         ENDMOD        ADC

  -------         MODULE        GPIO
  C:0000H         SYMBOL        _ICE_DUMMY_
  D:00B1H         PUBLIC        P0M1
  D:00B3H         PUBLIC        P1M1
  D:00B2H         PUBLIC        P0M2
  D:0080H         PUBLIC        P0
  D:00B5H         PUBLIC        P2M1
  D:00B4H         PUBLIC        P1M2
  D:0090H         PUBLIC        P1
  D:00C2H         PUBLIC        P3M1
  D:00B6H         PUBLIC        P2M2
  D:00A0H         PUBLIC        P2
  D:00C3H         PUBLIC        P3M2
  D:00B9H         PUBLIC        P4M1
  D:00B0H         PUBLIC        P3
  D:00BDH         PUBLIC        P5M1
  D:00BAH         PUBLIC        P4M2
  D:00D8H         PUBLIC        P4
  D:009BH         PUBLIC        EIE0
  D:0084H         PUBLIC        P6M1
  D:00BEH         PUBLIC        P5M2
  D:0085H         PUBLIC        P6M2
  C:1594H         PUBLIC        _GPIO_EnableInt
  D:00A8H         PUBLIC        IE
  D:00B8H         PUBLIC        IP
  D:008AH         PUBLIC        P0DW
  D:008BH         PUBLIC        P1DW
  D:008CH         PUBLIC        P2DW
  D:008DH         PUBLIC        P3DW
  D:008EH         PUBLIC        P4DW
  D:008FH         PUBLIC        P5DW
  D:008FH         PUBLIC        P6DW
  D:0092H         PUBLIC        P0UP
  D:0093H         PUBLIC        P1UP
  D:0094H         PUBLIC        P2UP
  D:0095H         PUBLIC        P3UP
BL51 BANKED LINKER/LOCATER V6.22.2.0                                                  11/11/2022  18:17:38  PAGE 20


  D:0096H         PUBLIC        P4UP
  D:0097H         PUBLIC        P5UP
  D:0097H         PUBLIC        P6UP
  D:0098H         PUBLIC        SCON
  D:0088H         PUBLIC        TCON
  D:0091H         PUBLIC        SFRS
  C:5363H         PUBLIC        _GPIO_SetMode
  C:5A27H         PUBLIC        _GPIO_Pull_Disable
  D:00C0H         PUBLIC        I2C0CON
  D:00E8H         PUBLIC        I2C1CON
  C:5BF2H         PUBLIC        _GPIO_Pull_Enable
  D:00F8H         PUBLIC        S1CON
  D:00C8H         PUBLIC        T2CON
  D:00A1H         PUBLIC        PIPS0
  D:00A2H         PUBLIC        PIPS1
  D:00A3H         PUBLIC        PIPS2
  D:00A4H         PUBLIC        PIPS3
  D:00A5H         PUBLIC        PIPS4
  D:00A6H         PUBLIC        PIPS5
  D:00A7H         PUBLIC        PIPS6
  D:00AFH         PUBLIC        PIPS7
  D:00E9H         PUBLIC        PICON
  D:00D0H         PUBLIC        PSW
  D:00EAH         PUBLIC        PINEN
  D:00EBH         PUBLIC        PIPEN
  -------         PROC          _GPIO_ENABLEINT
  D:0007H         SYMBOL        u8PIT
  D:0005H         SYMBOL        u8IntStatus
  D:0003H         SYMBOL        u8IntMode
  X:0754H         SYMBOL        u8Port
  X:0755H         SYMBOL        u8Bit
  C:1594H         LINE#         20
  C:1594H         LINE#         21
  C:1594H         LINE#         22
  C:15D2H         LINE#         23
  C:15D2H         LINE#         24
  C:15DAH         LINE#         25
  C:15E2H         LINE#         26
  C:15EAH         LINE#         27
  C:15F2H         LINE#         28
  C:15FAH         LINE#         29
  C:1602H         LINE#         30
  C:160AH         LINE#         31
  C:1612H         LINE#         33
  C:161AH         LINE#         34
  C:1622H         LINE#         35
  C:162AH         LINE#         36
  C:1632H         LINE#         37
  C:163AH         LINE#         38
  C:1642H         LINE#         39
  C:164AH         LINE#         40
  C:1650H         LINE#         41
  C:1650H         LINE#         42
  C:1650H         LINE#         43
  C:16A6H         LINE#         44
  C:16A6H         LINE#         45
  C:16B5H         LINE#         46
BL51 BANKED LINKER/LOCATER V6.22.2.0                                                  11/11/2022  18:17:38  PAGE 21


  C:16C4H         LINE#         47
  C:16D3H         LINE#         48
  C:16E2H         LINE#         49
  C:16F1H         LINE#         50
  C:1700H         LINE#         51
  C:170FH         LINE#         52
  C:171EH         LINE#         54
  C:172DH         LINE#         55
  C:173CH         LINE#         56
  C:174BH         LINE#         57
  C:175AH         LINE#         58
  C:1769H         LINE#         59
  C:1778H         LINE#         60
  C:1786H         LINE#         61
  C:1794H         LINE#         63
  C:17A2H         LINE#         64
  C:17B0H         LINE#         65
  C:17BEH         LINE#         66
  C:17CCH         LINE#         67
  C:17DAH         LINE#         68
  C:17E8H         LINE#         69
  C:17F6H         LINE#         70
  C:1802H         LINE#         72
  C:1802H         LINE#         73
  C:1802H         LINE#         74
  C:182AH         LINE#         75
  C:182AH         LINE#         76
  C:1840H         LINE#         77
  C:1855H         LINE#         78
  C:186AH         LINE#         79
  C:187FH         LINE#         80
  C:1894H         LINE#         81
  C:18A9H         LINE#         82
  C:18BEH         LINE#         83
  C:18D1H         LINE#         84
  C:18D1H         LINE#         85
  C:18D1H         LINE#         86
  C:18D7H         LINE#         87
  -------         ENDPROC       _GPIO_ENABLEINT
  -------         PROC          _GPIO_PULL_ENABLE
  D:0007H         SYMBOL        u8Port
  D:0005H         SYMBOL        u8PinMask
  D:0003H         SYMBOL        u8PullMode
  C:5BF2H         LINE#         102
  C:5BF2H         LINE#         103
  C:5BF2H         LINE#         104
  C:5BF5H         LINE#         105
  C:5BFCH         LINE#         106
  C:5BFCH         LINE#         107
  C:5BFCH         LINE#         108
  C:5C1EH         LINE#         109
  C:5C1EH         LINE#         110
  C:5C22H         LINE#         111
  C:5C26H         LINE#         112
  C:5C2AH         LINE#         113
  C:5C2EH         LINE#         114
  C:5C32H         LINE#         115
BL51 BANKED LINKER/LOCATER V6.22.2.0                                                  11/11/2022  18:17:38  PAGE 22


  C:5C36H         LINE#         116
  C:5C3AH         LINE#         117
  C:5C3AH         LINE#         118
  C:5C3BH         LINE#         119
  C:5C3BH         LINE#         120
  C:5C5DH         LINE#         121
  C:5C5DH         LINE#         122
  C:5C61H         LINE#         123
  C:5C65H         LINE#         124
  C:5C69H         LINE#         125
  C:5C6DH         LINE#         126
  C:5C71H         LINE#         127
  C:5C75H         LINE#         128
  C:5C78H         LINE#         129
  C:5C78H         LINE#         130
  C:5C78H         LINE#         131
  C:5C78H         LINE#         132
  -------         ENDPROC       _GPIO_PULL_ENABLE
  -------         PROC          _GPIO_PULL_DISABLE
  D:0007H         SYMBOL        u8Port
  D:0005H         SYMBOL        u8PinMask
  D:0003H         SYMBOL        u8PullMode
  C:5A27H         LINE#         144
  C:5A27H         LINE#         145
  C:5A27H         LINE#         146
  C:5A2AH         LINE#         147
  C:5A34H         LINE#         148
  C:5A34H         LINE#         149
  C:5A34H         LINE#         150
  C:5A59H         LINE#         151
  C:5A59H         LINE#         152
  C:5A5EH         LINE#         153
  C:5A63H         LINE#         154
  C:5A68H         LINE#         155
  C:5A6DH         LINE#         156
  C:5A72H         LINE#         157
  C:5A77H         LINE#         158
  C:5A7CH         LINE#         159
  C:5A7CH         LINE#         160
  C:5A7DH         LINE#         161
  C:5A7DH         LINE#         162
  C:5A9FH         LINE#         163
  C:5A9FH         LINE#         164
  C:5AA4H         LINE#         165
  C:5AA9H         LINE#         166
  C:5AAEH         LINE#         167
  C:5AB3H         LINE#         168
  C:5AB8H         LINE#         169
  C:5ABDH         LINE#         170
  C:5AC1H         LINE#         171
  C:5AC1H         LINE#         172
  C:5AC1H         LINE#         173
  C:5AC1H         LINE#         174
  -------         ENDPROC       _GPIO_PULL_DISABLE
  -------         PROC          _GPIO_SETMODE
  X:071FH         SYMBOL        u8Port
  D:0001H         SYMBOL        u8PinMask
BL51 BANKED LINKER/LOCATER V6.22.2.0                                                  11/11/2022  18:17:38  PAGE 23


  D:0003H         SYMBOL        u8Mode
  -------         DO            
  D:0004H         SYMBOL        u8PnM1
  D:0006H         SYMBOL        u8PnM2
  -------         ENDDO         
  C:5363H         LINE#         186
  C:536AH         LINE#         187
  C:536AH         LINE#         190
  C:536DH         LINE#         191
  C:538FH         LINE#         192
  C:538FH         LINE#         193
  C:5395H         LINE#         194
  C:539BH         LINE#         195
  C:53A1H         LINE#         196
  C:53A7H         LINE#         197
  C:53ADH         LINE#         198
  C:53B3H         LINE#         199
  C:53B7H         LINE#         200
  C:53B7H         LINE#         201
  C:53C5H         LINE#         202
  C:53C5H         LINE#         203
  C:53C5H         LINE#         204
  C:53CAH         LINE#         205
  C:53CDH         LINE#         206
  C:53CFH         LINE#         207
  C:53CFH         LINE#         208
  C:53D3H         LINE#         209
  C:53D6H         LINE#         210
  C:53D8H         LINE#         211
  C:53D8H         LINE#         212
  C:53DBH         LINE#         213
  C:53DFH         LINE#         214
  C:53E1H         LINE#         215
  C:53E1H         LINE#         216
  C:53E4H         LINE#         217
  C:53E7H         LINE#         218
  C:53E7H         LINE#         219
  C:53E7H         LINE#         220
  C:540CH         LINE#         221
  C:540CH         LINE#         222
  C:5412H         LINE#         223
  C:5418H         LINE#         224
  C:541EH         LINE#         225
  C:5424H         LINE#         226
  C:542AH         LINE#         227
  C:5430H         LINE#         228
  C:5434H         LINE#         229
  C:5434H         LINE#         230
  C:5437H         LINE#         232
  -------         ENDPROC       _GPIO_SETMODE
  -------         ENDMOD        GPIO

  -------         MODULE        I2C
  C:0000H         SYMBOL        _ICE_DUMMY_
  D:0080H         PUBLIC        P0
  D:0090H         PUBLIC        P1
  D:00A0H         PUBLIC        P2
BL51 BANKED LINKER/LOCATER V6.22.2.0                                                  11/11/2022  18:17:38  PAGE 24


  D:00B0H         PUBLIC        P3
  D:00D8H         PUBLIC        P4
  D:009BH         PUBLIC        EIE0
  D:009CH         PUBLIC        EIE1
  C:702BH         PUBLIC        _I2C_DisableInt
  D:00A8H         PUBLIC        IE
  C:7013H         PUBLIC        _I2C_EnableInt
  C:7096H         PUBLIC        _I2C_Close
  D:00B8H         PUBLIC        IP
  C:70EFH         PUBLIC        _I2C_SLAVE_ADDRESS_MASK_ENABLE
  D:00BDH         PUBLIC        I2C0STAT
  D:00B4H         PUBLIC        I2C1STAT
  C:6202H         PUBLIC        _I2C_Open
  D:0098H         PUBLIC        SCON
  D:0088H         PUBLIC        TCON
  D:00C1H         PUBLIC        I2C0ADDR0
  D:00A1H         PUBLIC        I2C0ADDR1
  D:00B2H         PUBLIC        I2C1ADDR0
  D:00A4H         PUBLIC        I2C1ADDR1
  D:00A2H         PUBLIC        I2C0ADDR2
  D:00A5H         PUBLIC        I2C1ADDR2
  D:00A3H         PUBLIC        I2C0ADDR3
  D:0091H         PUBLIC        SFRS
  D:00A6H         PUBLIC        I2C1ADDR3
  C:70BAH         PUBLIC        _I2C_DisableTimeout
  C:7070H         PUBLIC        _I2C_GetStatus
  D:00BEH         PUBLIC        I2C0CLK
  D:00B5H         PUBLIC        I2C1CLK
  D:00C0H         PUBLIC        I2C0CON
  D:00E8H         PUBLIC        I2C1CON
  D:00BFH         PUBLIC        I2C0TOC
  C:70A8H         PUBLIC        _I2C_EnableTimeout
  D:00B6H         PUBLIC        I2C1TOC
  C:65B4H         PUBLIC        _I2C_SetSlaveAddrMask
  D:00CFH         PUBLIC        I2C0ADDRM
  D:00D7H         PUBLIC        I2C1ADDRM
  D:00F8H         PUBLIC        S1CON
  D:00C8H         PUBLIC        T2CON
  C:7083H         PUBLIC        _I2C_SLAVE_ADDRESS_MASK_DISABLE
  C:70CCH         PUBLIC        _I2C_ClearTimeoutFlag
  D:00D0H         PUBLIC        PSW
  -------         PROC          _I2C_OPEN
  D:0007H         SYMBOL        u8I2CSel
  X:0722H         SYMBOL        u32SYSCLK
  X:0726H         SYMBOL        u32I2CCLK
  C:6202H         LINE#         21
  C:6202H         LINE#         22
  C:6202H         LINE#         23
  C:6205H         LINE#         24
  C:620CH         LINE#         25
  C:620CH         LINE#         26
  C:623CH         LINE#         27
  C:626BH         LINE#         28
  C:626BH         LINE#         29
  -------         ENDPROC       _I2C_OPEN
  -------         PROC          _I2C_CLOSE
  D:0007H         SYMBOL        u8I2CSel
BL51 BANKED LINKER/LOCATER V6.22.2.0                                                  11/11/2022  18:17:38  PAGE 25


  C:7096H         LINE#         36
  C:7096H         LINE#         37
  C:7096H         LINE#         38
  C:7099H         LINE#         39
  C:70A0H         LINE#         40
  C:70A0H         LINE#         41
  C:70A4H         LINE#         42
  C:70A7H         LINE#         43
  C:70A7H         LINE#         44
  -------         ENDPROC       _I2C_CLOSE
  -------         PROC          _I2C_ENABLEINT
  D:0007H         SYMBOL        u8I2CSel
  C:7013H         LINE#         51
  C:7013H         LINE#         52
  C:7013H         LINE#         53
  C:7016H         LINE#         54
  C:701DH         LINE#         55
  C:701DH         LINE#         56
  C:7024H         LINE#         57
  C:702AH         LINE#         58
  C:702AH         LINE#         59
  -------         ENDPROC       _I2C_ENABLEINT
  -------         PROC          _I2C_DISABLEINT
  D:0007H         SYMBOL        u8I2CSel
  C:702BH         LINE#         66
  C:702BH         LINE#         67
  C:702BH         LINE#         68
  C:702EH         LINE#         69
  C:7035H         LINE#         70
  C:7035H         LINE#         71
  C:703CH         LINE#         72
  C:7042H         LINE#         73
  C:7042H         LINE#         74
  -------         ENDPROC       _I2C_DISABLEINT
  -------         PROC          _I2C_GETSTATUS
  D:0007H         SYMBOL        u8I2CSel
  -------         DO            
  D:0006H         SYMBOL        u8i2cstat
  -------         ENDDO         
  C:7070H         LINE#         82
  C:7070H         LINE#         83
  C:7070H         LINE#         85
  C:7073H         LINE#         86
  C:707AH         LINE#         87
  C:707AH         LINE#         88
  C:707EH         LINE#         89
  C:7080H         LINE#         90
  C:7080H         LINE#         91
  C:7082H         LINE#         92
  -------         ENDPROC       _I2C_GETSTATUS
  -------         PROC          _I2C_SETSLAVEADDRMASK
  D:0007H         SYMBOL        u8I2CSel
  D:0005H         SYMBOL        u8SlaveNo
  D:0003H         SYMBOL        u8SlaveAddrMask
  C:65B4H         LINE#         104
  C:65B4H         LINE#         105
  C:65B4H         LINE#         106
BL51 BANKED LINKER/LOCATER V6.22.2.0                                                  11/11/2022  18:17:38  PAGE 26


  C:65BBH         LINE#         107
  C:65BBH         LINE#         108
  C:65BBH         LINE#         109
  C:65C9H         LINE#         110
  C:65C9H         LINE#         111
  C:65D0H         LINE#         112
  C:65D7H         LINE#         113
  C:65DEH         LINE#         114
  C:65E3H         LINE#         115
  C:65E3H         LINE#         116
  C:65E3H         LINE#         117
  C:65F1H         LINE#         118
  C:65F1H         LINE#         119
  C:65F7H         LINE#         120
  C:65FDH         LINE#         121
  C:6603H         LINE#         122
  C:660AH         LINE#         123
  C:660AH         LINE#         124
  C:660AH         LINE#         125
  C:660AH         LINE#         126
  -------         ENDPROC       _I2C_SETSLAVEADDRMASK
  -------         PROC          _I2C_ENABLETIMEOUT
  D:0007H         SYMBOL        u8I2CSel
  C:70A8H         LINE#         136
  C:70A8H         LINE#         137
  C:70A8H         LINE#         138
  C:70ABH         LINE#         139
  C:70B2H         LINE#         140
  C:70B2H         LINE#         141
  C:70B6H         LINE#         142
  C:70B9H         LINE#         143
  C:70B9H         LINE#         144
  -------         ENDPROC       _I2C_ENABLETIMEOUT
  -------         PROC          _I2C_DISABLETIMEOUT
  D:0007H         SYMBOL        u8I2CSel
  C:70BAH         LINE#         153
  C:70BAH         LINE#         154
  C:70BAH         LINE#         155
  C:70BDH         LINE#         156
  C:70C4H         LINE#         157
  C:70C4H         LINE#         158
  C:70C8H         LINE#         159
  C:70CBH         LINE#         160
  C:70CBH         LINE#         161
  -------         ENDPROC       _I2C_DISABLETIMEOUT
  -------         PROC          _I2C_CLEARTIMEOUTFLAG
  D:0007H         SYMBOL        u8I2CSel
  C:70CCH         LINE#         163
  C:70CCH         LINE#         164
  C:70CCH         LINE#         165
  C:70CFH         LINE#         166
  C:70D6H         LINE#         167
  C:70D6H         LINE#         168
  C:70DAH         LINE#         169
  C:70DDH         LINE#         170
  C:70DDH         LINE#         171
  C:70DDH         LINE#         172
BL51 BANKED LINKER/LOCATER V6.22.2.0                                                  11/11/2022  18:17:38  PAGE 27


  -------         ENDPROC       _I2C_CLEARTIMEOUTFLAG
  -------         PROC          _I2C_SLAVE_ADDRESS_MASK_ENABLE
  D:0007H         SYMBOL        u8I2CSel
  D:0005H         SYMBOL        u8I2CAddMaskBit
  C:70EFH         LINE#         182
  C:70EFH         LINE#         183
  C:70EFH         LINE#         184
  C:70F2H         LINE#         185
  C:70F9H         LINE#         186
  C:70F9H         LINE#         187
  C:70FCH         LINE#         188
  C:70FFH         LINE#         189
  C:70FFH         LINE#         190
  C:70FFH         LINE#         191
  -------         ENDPROC       _I2C_SLAVE_ADDRESS_MASK_ENABLE
  -------         PROC          _I2C_SLAVE_ADDRESS_MASK_DISABLE
  D:0007H         SYMBOL        u8I2CSLVSEL
  D:0005H         SYMBOL        u8I2CAddMaskBit
  C:7083H         LINE#         201
  C:7083H         LINE#         202
  C:7083H         LINE#         203
  C:7086H         LINE#         204
  C:708DH         LINE#         205
  C:708DH         LINE#         206
  C:7091H         LINE#         207
  C:7095H         LINE#         208
  C:7095H         LINE#         209
  C:7095H         LINE#         210
  -------         ENDPROC       _I2C_SLAVE_ADDRESS_MASK_DISABLE
  -------         ENDMOD        I2C

  -------         MODULE        UART3
  C:0000H         SYMBOL        _ICE_DUMMY_
  D:00DBH         PUBLIC        SC1ETURD0
  D:00DCH         PUBLIC        SC1ETURD1
  D:0080H         PUBLIC        P0
  D:0090H         PUBLIC        P1
  D:00A0H         PUBLIC        P2
  D:00B0H         PUBLIC        P3
  D:00D8H         PUBLIC        P4
  D:00E6H         PUBLIC        SC1CR0
  D:00A8H         PUBLIC        IE
  D:00E7H         PUBLIC        SC1CR1
  D:00B8H         PUBLIC        IP
  D:0098H         PUBLIC        SCON
  D:0088H         PUBLIC        TCON
  C:009EH         PUBLIC        _UART3_Send_Data
  D:0091H         PUBLIC        SFRS
  D:00DFH         PUBLIC        SC1TSR
  D:00C0H         PUBLIC        I2C0CON
  D:00E8H         PUBLIC        I2C1CON
  X:076DH         PUBLIC        uart3rvbuffer
  D:00D9H         PUBLIC        SC1DR
  C:6F8DH         PUBLIC        SMC1_ISR
  D:00F8H         PUBLIC        S1CON
  C:581AH         PUBLIC        _UART3_Open
  D:00C8H         PUBLIC        T2CON
BL51 BANKED LINKER/LOCATER V6.22.2.0                                                  11/11/2022  18:17:38  PAGE 28


  C:007EH         PUBLIC        UART3_Receive_Data
  B:0020H.6       PUBLIC        uart3rvflag
  D:00D0H         PUBLIC        PSW
  -------         PROC          SMC1_ISR
  C:6F8DH         LINE#         19
  C:6F93H         LINE#         21
  C:6F95H         LINE#         22
  C:6F98H         LINE#         23
  C:6F9AH         LINE#         24
  C:6FA0H         LINE#         25
  C:6FA2H         LINE#         26
  -------         ENDPROC       SMC1_ISR
  -------         PROC          _UART3_OPEN
  X:073BH         SYMBOL        u32SysClock
  X:073FH         SYMBOL        u32Baudrate
  C:581AH         LINE#         35
  C:5820H         LINE#         36
  C:5820H         LINE#         37
  C:5826H         LINE#         38
  C:582CH         LINE#         39
  C:5832H         LINE#         40
  C:5838H         LINE#         41
  C:583EH         LINE#         42
  C:587AH         LINE#         43
  C:587DH         LINE#         44
  C:58BEH         LINE#         45
  C:58C4H         LINE#         46
  C:58C7H         LINE#         47
  C:58CDH         LINE#         48
  -------         ENDPROC       _UART3_OPEN
  -------         PROC          UART3_RECEIVE_DATA
  -------         DO            
  D:0007H         SYMBOL        c
  -------         ENDDO         
  C:007EH         LINE#         57
  C:007EH         LINE#         58
  C:007EH         LINE#         61
  C:0084H         LINE#         62
  C:0098H         LINE#         63
  C:009AH         LINE#         65
  C:009AH         LINE#         66
  -------         ENDPROC       UART3_RECEIVE_DATA
  -------         PROC          _UART3_SEND_DATA
  D:0007H         SYMBOL        c
  C:009EH         LINE#         75
  C:009EH         LINE#         76
  C:009EH         LINE#         77
  C:00A4H         LINE#         78
  C:00A6H         LINE#         79
  C:00ABH         LINE#         80
  C:00B1H         LINE#         81
  -------         ENDPROC       _UART3_SEND_DATA
  -------         ENDMOD        UART3

  -------         MODULE        UART
  C:0000H         SYMBOL        _ICE_DUMMY_
  D:0080H         PUBLIC        P0
BL51 BANKED LINKER/LOCATER V6.22.2.0                                                  11/11/2022  18:17:38  PAGE 29


  D:0090H         PUBLIC        P1
  D:00C2H         PUBLIC        P3M1
  D:00A0H         PUBLIC        P2
  D:00C3H         PUBLIC        P3M2
  D:00B0H         PUBLIC        P3
  D:00D8H         PUBLIC        P4
  D:009CH         PUBLIC        EIE1
  C:6EB4H         PUBLIC        _UART_Send_Data
  B:0020H.0       PUBLIC        UART0PRINTFG
  B:0020H.1       PUBLIC        UART1PRINTFG
  D:00A8H         PUBLIC        IE
  D:00B8H         PUBLIC        IP
  B:0098H.0       PUBLIC        RI
  B:0098H.1       PUBLIC        TI
  C:6D29H         PUBLIC        _UART_Interrupt_Enable
  C:6C6EH         PUBLIC        Enable_UART0_VCOM_printf
  B:00F8H.0       PUBLIC        RI_1
  B:00F8H.1       PUBLIC        TI_1
  D:0099H         PUBLIC        SBUF
  D:0087H         PUBLIC        PCON
  C:3FE3H         PUBLIC        _UART_Open
  D:0098H         PUBLIC        SCON
  X:076AH         PUBLIC        uart0_receive_data
  B:0020H.2       PUBLIC        uart0_receive_flag
  D:0089H         PUBLIC        TMOD
  D:0088H         PUBLIC        TCON
  X:076BH         PUBLIC        uart1_receive_data
  B:0020H.3       PUBLIC        uart1_receive_flag
  D:0091H         PUBLIC        SFRS
  C:6F34H         PUBLIC        _UART_Receive_Data
  D:00C6H         PUBLIC        RH3
  D:008DH         PUBLIC        TH1
  D:00C0H         PUBLIC        I2C0CON
  D:00E8H         PUBLIC        I2C1CON
  D:00C5H         PUBLIC        RL3
  D:009AH         PUBLIC        SBUF1
  D:00F8H         PUBLIC        S1CON
  D:00C8H         PUBLIC        T2CON
  D:00C4H         PUBLIC        T3CON
  D:008EH         PUBLIC        CKCON
  D:00F6H         PUBLIC        P3MF10
  D:00D0H         PUBLIC        PSW
  -------         PROC          ENABLE_UART0_VCOM_PRINTF
  C:6C6EH         LINE#         20
  C:6C6EH         LINE#         21
  C:6C6EH         LINE#         26
  C:6C77H         LINE#         27
  C:6C80H         LINE#         28
  C:6C99H         LINE#         29
  C:6C9EH         LINE#         30
  -------         ENDPROC       ENABLE_UART0_VCOM_PRINTF
  -------         PROC          _UART_OPEN
  X:070FH         SYMBOL        u32SysClock
  X:0713H         SYMBOL        u8UARTPort
  X:0714H         SYMBOL        u32Baudrate
  C:3FE3H         LINE#         51
  C:3FE9H         LINE#         52
BL51 BANKED LINKER/LOCATER V6.22.2.0                                                  11/11/2022  18:17:38  PAGE 30


  C:3FE9H         LINE#         53
  C:4008H         LINE#         54
  C:4008H         LINE#         55
  C:4008H         LINE#         56
  C:4008H         LINE#         57
  C:400BH         LINE#         58
  C:400EH         LINE#         59
  C:4011H         LINE#         60
  C:4014H         LINE#         61
  C:4019H         LINE#         62
  C:401EH         LINE#         63
  C:404AH         LINE#         64
  C:404DH         LINE#         65
  C:404EH         LINE#         66
  C:404EH         LINE#         67
  C:4051H         LINE#         68
  C:4054H         LINE#         69
  C:4057H         LINE#         70
  C:405AH         LINE#         71
  C:405FH         LINE#         72
  C:409BH         LINE#         73
  C:40D5H         LINE#         74
  C:40DAH         LINE#         75
  C:40DBH         LINE#         76
  C:40DBH         LINE#         77
  C:40DBH         LINE#         78
  C:40DEH         LINE#         79
  C:40E1H         LINE#         80
  C:40E4H         LINE#         81
  C:4120H         LINE#         82
  C:415AH         LINE#         83
  C:415FH         LINE#         84
  C:415FH         LINE#         86
  C:415FH         LINE#         87
  -------         ENDPROC       _UART_OPEN
  -------         PROC          _UART_RECEIVE_DATA
  D:0007H         SYMBOL        UARTPort
  -------         DO            
  D:0006H         SYMBOL        c
  -------         ENDDO         
  C:6F34H         LINE#         91
  C:6F34H         LINE#         92
  C:6F34H         LINE#         94
  C:6F37H         LINE#         95
  C:6F3FH         LINE#         96
  C:6F3FH         LINE#         97
  C:6F3FH         LINE#         98
  C:6F42H         LINE#         99
  C:6F44H         LINE#         100
  C:6F46H         LINE#         101
  C:6F48H         LINE#         102
  C:6F48H         LINE#         103
  C:6F4BH         LINE#         104
  C:6F4DH         LINE#         105
  C:6F4FH         LINE#         106
  C:6F4FH         LINE#         107
  C:6F4FH         LINE#         108
BL51 BANKED LINKER/LOCATER V6.22.2.0                                                  11/11/2022  18:17:38  PAGE 31


  C:6F51H         LINE#         109
  -------         ENDPROC       _UART_RECEIVE_DATA
  -------         PROC          _UART_SEND_DATA
  D:0007H         SYMBOL        UARTPort
  D:0005H         SYMBOL        c
  C:6EB4H         LINE#         113
  C:6EB4H         LINE#         114
  C:6EB4H         LINE#         115
  C:6EB7H         LINE#         116
  C:6EBFH         LINE#         117
  C:6EBFH         LINE#         118
  C:6EBFH         LINE#         119
  C:6EC1H         LINE#         120
  C:6EC3H         LINE#         121
  C:6EC6H         LINE#         122
  C:6EC8H         LINE#         123
  C:6EC9H         LINE#         124
  C:6EC9H         LINE#         125
  C:6ECBH         LINE#         126
  C:6ECFH         LINE#         127
  C:6ED2H         LINE#         128
  C:6ED4H         LINE#         129
  C:6ED4H         LINE#         130
  C:6ED4H         LINE#         131
  -------         ENDPROC       _UART_SEND_DATA
  -------         PROC          _UART_INTERRUPT_ENABLE
  D:0007H         SYMBOL        u8UARTPort
  D:0005H         SYMBOL        u8UARTINTStatus
  C:6D29H         LINE#         142
  C:6D29H         LINE#         143
  C:6D29H         LINE#         144
  C:6D31H         LINE#         145
  C:6D31H         LINE#         146
  C:6D31H         LINE#         147
  C:6D38H         LINE#         148
  C:6D38H         LINE#         149
  C:6D3CH         LINE#         150
  C:6D40H         LINE#         151
  C:6D40H         LINE#         152
  C:6D41H         LINE#         153
  C:6D41H         LINE#         154
  C:6D48H         LINE#         155
  C:6D48H         LINE#         156
  C:6D4FH         LINE#         157
  C:6D55H         LINE#         158
  C:6D55H         LINE#         159
  C:6D55H         LINE#         160
  C:6D55H         LINE#         161
  -------         ENDPROC       _UART_INTERRUPT_ENABLE
  -------         ENDMOD        UART

  -------         MODULE        PWM0
  C:0000H         SYMBOL        _ICE_DUMMY_
  D:0080H         PUBLIC        P0
  D:0090H         PUBLIC        P1
  D:00A0H         PUBLIC        P2
  D:00B0H         PUBLIC        P3
BL51 BANKED LINKER/LOCATER V6.22.2.0                                                  11/11/2022  18:17:38  PAGE 32


  D:00D8H         PUBLIC        P4
  B:00A8H.7       PUBLIC        EA
  D:00A8H         PUBLIC        IE
  D:00C7H         PUBLIC        TA
  D:00B8H         PUBLIC        IP
  D:00FAH         PUBLIC        PWM0DTCNT
  D:0098H         PUBLIC        SCON
  C:2F3FH         PUBLIC        _PWM0_ConfigOutputChannel
  D:0088H         PUBLIC        TCON
  D:00D1H         PUBLIC        PWM0CON0
  D:00DFH         PUBLIC        PWM0CON1
  D:009DH         PUBLIC        PWM1CON1
  D:00D1H         PUBLIC        PWM0PH
  D:0091H         PUBLIC        SFRS
  D:00D9H         PUBLIC        PWM0PL
  D:00E0H         PUBLIC        ACC
  C:71DAH         PUBLIC        PWM0_STOP
  D:00C0H         PUBLIC        I2C0CON
  D:00E8H         PUBLIC        I2C1CON
  D:00F9H         PUBLIC        PWM0DTEN
  C:6396H         PUBLIC        _PWM0_DeadZoneEnable
  D:00D2H         PUBLIC        PWM0C0H
  D:00D3H         PUBLIC        PWM0C1H
  D:00D4H         PUBLIC        PWM0C2H
  D:00D5H         PUBLIC        PWM0C3H
  D:00DAH         PUBLIC        PWM0C0L
  D:00C4H         PUBLIC        PWM0C4H
  D:00F8H         PUBLIC        S1CON
  D:00DBH         PUBLIC        PWM0C1L
  D:00C5H         PUBLIC        PWM0C5H
  D:00DCH         PUBLIC        PWM0C2L
  D:00C8H         PUBLIC        T2CON
  D:00DDH         PUBLIC        PWM0C3L
  C:7100H         PUBLIC        PWM0_DeadZone_ALL_Disable
  D:00CCH         PUBLIC        PWM0C4L
  D:00CDH         PUBLIC        PWM0C5L
  C:60B9H         PUBLIC        _PWM0_ClockSource
  C:6127H         PUBLIC        _PWM1_ClockSource
  D:008EH         PUBLIC        CKCON
  D:00D0H         PUBLIC        PSW
  C:71D3H         PUBLIC        PWM0_RUN
  -------         PROC          _PWM0_CLOCKSOURCE
  D:0007H         SYMBOL        u8PWMCLKSource
  D:0005H         SYMBOL        u8PWM0CLKDIV
  C:60B9H         LINE#         25
  C:60B9H         LINE#         26
  C:60B9H         LINE#         27
  C:60C0H         LINE#         28
  C:60C0H         LINE#         29
  C:60C8H         LINE#         30
  C:60CEH         LINE#         31
  C:60CEH         LINE#         32
  C:60D1H         LINE#         33
  C:60F2H         LINE#         34
  C:60F2H         LINE#         35
  C:60F6H         LINE#         36
  C:60FDH         LINE#         37
BL51 BANKED LINKER/LOCATER V6.22.2.0                                                  11/11/2022  18:17:38  PAGE 33


  C:6104H         LINE#         38
  C:610BH         LINE#         39
  C:6112H         LINE#         40
  C:6119H         LINE#         41
  C:6120H         LINE#         42
  C:6126H         LINE#         43
  C:6126H         LINE#         44
  -------         ENDPROC       _PWM0_CLOCKSOURCE
  -------         PROC          _PWM0_CONFIGOUTPUTCHANNEL
  D:0007H         SYMBOL        u8PWM0ChannelNum
  D:0005H         SYMBOL        u8PWM0OPMode
  D:0003H         SYMBOL        u8PWM0PwmType
  X:0713H         SYMBOL        u32PWM0Frequency
  X:0717H         SYMBOL        u16PWM0DutyCycle
  C:2F3FH         LINE#         57
  C:2F3FH         LINE#         62
  C:2F3FH         LINE#         63
  C:2F42H         LINE#         64
  C:2F4DH         LINE#         65
  C:2F4DH         LINE#         66
  C:2F52H         LINE#         67
  C:2F5AH         LINE#         68
  C:2F60H         LINE#         69
  C:2F60H         LINE#         70
  C:2F67H         LINE#         71
  C:2F67H         LINE#         72
  C:2F6CH         LINE#         73
  C:2F6FH         LINE#         74
  C:2F6FH         LINE#         75
  C:2F92H         LINE#         76
  C:2F92H         LINE#         77
  C:2FE8H         LINE#         78
  C:303EH         LINE#         79
  C:3094H         LINE#         80
  C:30EAH         LINE#         81
  C:313FH         LINE#         82
  C:3192H         LINE#         83
  C:3192H         LINE#         84
  C:31A7H         LINE#         85
  C:31B3H         LINE#         86
  -------         ENDPROC       _PWM0_CONFIGOUTPUTCHANNEL
  -------         PROC          _PWM0_DEADZONEENABLE
  D:0007H         SYMBOL        u8PWM0Pair
  D:0004H         SYMBOL        u16PWM0DZValue
  C:6396H         LINE#         96
  C:6396H         LINE#         97
  C:6396H         LINE#         98
  C:6399H         LINE#         99
  C:639FH         LINE#         100
  C:63A4H         LINE#         101
  C:63ACH         LINE#         102
  C:63BAH         LINE#         103
  C:63BAH         LINE#         104
  C:63C5H         LINE#         105
  C:63D0H         LINE#         106
  C:63DBH         LINE#         107
  C:63E4H         LINE#         108
BL51 BANKED LINKER/LOCATER V6.22.2.0                                                  11/11/2022  18:17:38  PAGE 34


  C:63E4H         LINE#         109
  C:63E5H         LINE#         110
  C:63EBH         LINE#         111
  C:63EDH         LINE#         112
  C:63F1H         LINE#         113
  -------         ENDPROC       _PWM0_DEADZONEENABLE
  -------         PROC          PWM0_DEADZONE_ALL_DISABLE
  C:7100H         LINE#         122
  C:7100H         LINE#         123
  C:7100H         LINE#         124
  C:7103H         LINE#         125
  C:7109H         LINE#         126
  C:710CH         LINE#         127
  C:7110H         LINE#         128
  -------         ENDPROC       PWM0_DEADZONE_ALL_DISABLE
  -------         PROC          PWM0_RUN
  C:71D3H         LINE#         137
  C:71D3H         LINE#         138
  C:71D3H         LINE#         139
  C:71D9H         LINE#         140
  -------         ENDPROC       PWM0_RUN
  -------         PROC          PWM0_STOP
  C:71DAH         LINE#         149
  C:71DAH         LINE#         150
  C:71DAH         LINE#         151
  C:71E0H         LINE#         152
  -------         ENDPROC       PWM0_STOP
  -------         PROC          _PWM1_CLOCKSOURCE
  D:0007H         SYMBOL        u8PWMCLKSource
  D:0005H         SYMBOL        u8PWM0CLKDIV
  C:6127H         LINE#         166
  C:6127H         LINE#         167
  C:6127H         LINE#         168
  C:612EH         LINE#         169
  C:612EH         LINE#         170
  C:6136H         LINE#         171
  C:613CH         LINE#         172
  C:613CH         LINE#         173
  C:613FH         LINE#         174
  C:6160H         LINE#         175
  C:6160H         LINE#         176
  C:6164H         LINE#         177
  C:616BH         LINE#         178
  C:6172H         LINE#         179
  C:6179H         LINE#         180
  C:6180H         LINE#         181
  C:6187H         LINE#         182
  C:618EH         LINE#         183
  C:6194H         LINE#         184
  C:6194H         LINE#         185
  -------         ENDPROC       _PWM1_CLOCKSOURCE
  -------         ENDMOD        PWM0

  -------         MODULE        PWM123
  C:0000H         SYMBOL        _ICE_DUMMY_
  D:0080H         PUBLIC        P0
  D:0090H         PUBLIC        P1
BL51 BANKED LINKER/LOCATER V6.22.2.0                                                  11/11/2022  18:17:38  PAGE 35


  D:00A0H         PUBLIC        P2
  D:00B0H         PUBLIC        P3
  D:00D8H         PUBLIC        P4
  D:00A8H         PUBLIC        IE
  D:00B8H         PUBLIC        IP
  C:4F94H         PUBLIC        _PWM123_ConfigOutputChannel
  D:0098H         PUBLIC        SCON
  D:0088H         PUBLIC        TCON
  D:009DH         PUBLIC        PWM1CON1
  D:00C5H         PUBLIC        PWM2CON1
  D:00D5H         PUBLIC        PWM3CON1
  D:0086H         PUBLIC        PWM1PH
  D:0091H         PUBLIC        SFRS
  D:00B9H         PUBLIC        PWM2PH
  D:00C9H         PUBLIC        PWM3PH
  D:0099H         PUBLIC        PWM1PL
  D:00C1H         PUBLIC        PWM2PL
  D:00D1H         PUBLIC        PWM3PL
  D:00C0H         PUBLIC        I2C0CON
  D:00E8H         PUBLIC        I2C1CON
  C:39ADH         PUBLIC        _PWM123_ClockSource
  D:008AH         PUBLIC        PWM1C0H
  D:00BAH         PUBLIC        PWM2C0H
  D:008BH         PUBLIC        PWM1C1H
  D:00CAH         PUBLIC        PWM3C0H
  D:00BBH         PUBLIC        PWM2C1H
  D:00CBH         PUBLIC        PWM3C1H
  D:00F8H         PUBLIC        S1CON
  D:009AH         PUBLIC        PWM1C0L
  D:00C2H         PUBLIC        PWM2C0L
  D:009BH         PUBLIC        PWM1C1L
  D:00C8H         PUBLIC        T2CON
  D:00D2H         PUBLIC        PWM3C0L
  D:00C3H         PUBLIC        PWM2C1L
  D:00D3H         PUBLIC        PWM3C1L
  D:00D0H         PUBLIC        PSW
  -------         PROC          _PWM123_CLOCKSOURCE
  D:0007H         SYMBOL        u8PWMNum
  X:070FH         SYMBOL        u8PWMCLKDIV
  C:39ADH         LINE#         23
  C:39B2H         LINE#         24
  C:39B2H         LINE#         25
  C:39B4H         LINE#         26
  C:39C9H         LINE#         27
  C:39C9H         LINE#         28
  C:39C9H         LINE#         29
  C:39F0H         LINE#         30
  C:39F0H         LINE#         31
  C:39F9H         LINE#         32
  C:3A05H         LINE#         33
  C:3A11H         LINE#         34
  C:3A1DH         LINE#         35
  C:3A29H         LINE#         36
  C:3A35H         LINE#         37
  C:3A41H         LINE#         38
  C:3A4AH         LINE#         39
  C:3A4AH         LINE#         40
BL51 BANKED LINKER/LOCATER V6.22.2.0                                                  11/11/2022  18:17:38  PAGE 36


  C:3A4DH         LINE#         41
  C:3A4DH         LINE#         42
  C:3A74H         LINE#         43
  C:3A74H         LINE#         44
  C:3A7DH         LINE#         45
  C:3A89H         LINE#         46
  C:3A95H         LINE#         47
  C:3AA1H         LINE#         48
  C:3AADH         LINE#         49
  C:3AB9H         LINE#         50
  C:3AC4H         LINE#         51
  C:3ACCH         LINE#         52
  C:3ACCH         LINE#         53
  C:3ACEH         LINE#         54
  C:3ACEH         LINE#         55
  C:3AF2H         LINE#         56
  C:3AF2H         LINE#         57
  C:3AFAH         LINE#         58
  C:3B05H         LINE#         59
  C:3B10H         LINE#         60
  C:3B1BH         LINE#         61
  C:3B26H         LINE#         62
  C:3B31H         LINE#         63
  C:3B3CH         LINE#         64
  C:3B42H         LINE#         65
  C:3B42H         LINE#         66
  C:3B42H         LINE#         67
  C:3B42H         LINE#         68
  C:3B44H         LINE#         69
  -------         ENDPROC       _PWM123_CLOCKSOURCE
  -------         PROC          _PWM123_CONFIGOUTPUTCHANNEL
  D:0007H         SYMBOL        u8PWMNum
  X:0710H         SYMBOL        u8PWMChannelNum
  D:0002H         SYMBOL        u16PWMFrequency
  X:0713H         SYMBOL        u16PWMDutyCycle
  C:4F94H         LINE#         83
  C:4F99H         LINE#         87
  C:4F99H         LINE#         88
  C:4F9BH         LINE#         89
  C:4F9EH         LINE#         90
  C:4FB0H         LINE#         91
  C:4FB0H         LINE#         92
  C:4FB0H         LINE#         93
  C:4FBAH         LINE#         94
  C:4FBAH         LINE#         95
  C:4FDBH         LINE#         96
  C:4FFAH         LINE#         97
  C:4FFAH         LINE#         98
  C:4FFDH         LINE#         99
  C:4FFFH         LINE#         100
  C:5002H         LINE#         101
  C:5002H         LINE#         102
  C:500CH         LINE#         103
  C:500CH         LINE#         104
  C:502DH         LINE#         105
  C:504CH         LINE#         106
  C:504CH         LINE#         107
BL51 BANKED LINKER/LOCATER V6.22.2.0                                                  11/11/2022  18:17:38  PAGE 37


  C:504FH         LINE#         108
  C:5051H         LINE#         109
  C:5053H         LINE#         110
  C:5053H         LINE#         111
  C:505DH         LINE#         112
  C:505DH         LINE#         113
  C:507EH         LINE#         114
  C:509DH         LINE#         115
  C:509DH         LINE#         116
  C:50A0H         LINE#         117
  C:50A4H         LINE#         118
  C:50A4H         LINE#         119
  C:50A4H         LINE#         120
  C:50A6H         LINE#         121
  -------         ENDPROC       _PWM123_CONFIGOUTPUTCHANNEL
  -------         ENDMOD        PWM123

  -------         MODULE        EEPROM
  C:0000H         SYMBOL        _ICE_DUMMY_
  D:0080H         PUBLIC        P0
  D:0090H         PUBLIC        P1
  D:00A0H         PUBLIC        P2
  D:00B0H         PUBLIC        P3
  D:00D8H         PUBLIC        P4
  B:00A8H.7       PUBLIC        EA
  D:00A8H         PUBLIC        IE
  C:42DDH         PUBLIC        _Write_DATAFLASH_BYTE
  D:00C7H         PUBLIC        TA
  D:00B8H         PUBLIC        IP
  D:0098H         PUBLIC        SCON
  D:0088H         PUBLIC        TCON
  D:009FH         PUBLIC        CHPCON
  D:0091H         PUBLIC        SFRS
  D:00A5H         PUBLIC        IAPUEN
  D:00A4H         PUBLIC        IAPTRG
  C:626CH         PUBLIC        _Read_DATAFLASH_ARRAY
  D:00C0H         PUBLIC        I2C0CON
  D:00E8H         PUBLIC        I2C1CON
  C:55DDH         PUBLIC        _Write_DATAFLASH_ARRAY
  D:00A7H         PUBLIC        IAPAH
  D:00F8H         PUBLIC        S1CON
  D:00AEH         PUBLIC        IAPFD
  D:00C8H         PUBLIC        T2CON
  D:00A6H         PUBLIC        IAPAL
  D:00AFH         PUBLIC        IAPCN
  C:2A1FH         PUBLIC        _WriteDataToOnePage
  D:00D0H         PUBLIC        PSW
  -------         PROC          _WRITE_DATAFLASH_BYTE
  X:074BH         SYMBOL        u16EPAddr
  X:074DH         SYMBOL        u8EPData
  -------         DO            
  X:074EH         SYMBOL        looptmp
  X:074FH         SYMBOL        u16_addrl_r
  D:0006H         SYMBOL        RAMtmp
  -------         ENDDO         
  C:42DDH         LINE#         26
  C:42E8H         LINE#         27
BL51 BANKED LINKER/LOCATER V6.22.2.0                                                  11/11/2022  18:17:38  PAGE 38


  C:42E8H         LINE#         28
  C:42EBH         LINE#         33
  C:430DH         LINE#         36
  C:4320H         LINE#         37
  C:4320H         LINE#         38
  C:4332H         LINE#         39
  C:4341H         LINE#         40
  C:4349H         LINE#         43
  C:4361H         LINE#         46
  C:436AH         LINE#         47
  C:436DH         LINE#         48
  C:4370H         LINE#         49
  C:4386H         LINE#         50
  C:439BH         LINE#         51
  C:439EH         LINE#         52
  C:43B3H         LINE#         55
  C:43C8H         LINE#         56
  C:43DDH         LINE#         57
  C:43E0H         LINE#         59
  C:43F2H         LINE#         60
  C:43F2H         LINE#         61
  C:43FCH         LINE#         62
  C:43FFH         LINE#         63
  C:440CH         LINE#         64
  C:4422H         LINE#         65
  C:442AH         LINE#         67
  C:4440H         LINE#         68
  C:4455H         LINE#         69
  -------         ENDPROC       _WRITE_DATAFLASH_BYTE
  -------         PROC          _WRITE_DATAFLASH_ARRAY
  X:0743H         SYMBOL        u16_addr
  X:0745H         SYMBOL        pDat
  X:0748H         SYMBOL        num
  -------         DO            
  D:0003H         SYMBOL        CPageAddr
  X:074AH         SYMBOL        EPageAddr
  D:0005H         SYMBOL        cnt
  -------         ENDDO         
  C:55DDH         LINE#         73
  C:55EEH         LINE#         74
  C:55EEH         LINE#         76
  C:5602H         LINE#         77
  C:561CH         LINE#         79
  C:5623H         LINE#         80
  C:5623H         LINE#         81
  C:563FH         LINE#         82
  C:564DH         LINE#         83
  C:5657H         LINE#         84
  C:5666H         LINE#         85
  C:5677H         LINE#         86
  C:5679H         LINE#         88
  C:5684H         LINE#         89
  C:5684H         LINE#         90
  C:569DH         LINE#         91
  C:569DH         LINE#         92
  -------         ENDPROC       _WRITE_DATAFLASH_ARRAY
  -------         PROC          _READ_DATAFLASH_ARRAY
BL51 BANKED LINKER/LOCATER V6.22.2.0                                                  11/11/2022  18:17:38  PAGE 39


  X:0714H         SYMBOL        u16_addr
  X:0716H         SYMBOL        pDat
  X:0719H         SYMBOL        num
  -------         DO            
  X:071BH         SYMBOL        i
  -------         ENDDO         
  C:626CH         LINE#         94
  C:627DH         LINE#         95
  C:627DH         LINE#         98
  C:6298H         LINE#         99
  C:62D3H         LINE#         100
  -------         ENDPROC       _READ_DATAFLASH_ARRAY
  -------         PROC          _WRITEDATATOONEPAGE
  X:04B1H         SYMBOL        u16_addr
  X:04B3H         SYMBOL        pDat
  X:04B6H         SYMBOL        num
  -------         DO            
  X:04B7H         SYMBOL        i
  X:04B8H         SYMBOL        offset
  X:04B9H         SYMBOL        pCode
  X:04BBH         SYMBOL        xd_tmp
  C:2B66H         SYMBOL        WriteDataToPage20
  -------         ENDDO         
  C:2A1FH         LINE#         103
  C:2A30H         LINE#         104
  C:2A30H         LINE#         109
  C:2A46H         LINE#         110
  C:2A5BH         LINE#         112
  C:2A6AH         LINE#         113
  C:2A73H         LINE#         115
  C:2A81H         LINE#         117
  C:2A89H         LINE#         119
  C:2A9AH         LINE#         120
  C:2A9AH         LINE#         121
  C:2AADH         LINE#         122
  C:2AB5H         LINE#         124
  C:2ABFH         LINE#         125
  C:2ABFH         LINE#         126
  C:2AC2H         LINE#         127
  C:2ACBH         LINE#         128
  C:2ACEH         LINE#         130
  C:2ADFH         LINE#         131
  C:2ADFH         LINE#         132
  C:2AF4H         LINE#         133
  C:2B0AH         LINE#         134
  C:2B0CH         LINE#         135
  C:2B14H         LINE#         137
  C:2B25H         LINE#         138
  C:2B25H         LINE#         139
  C:2B4CH         LINE#         140
  C:2B54H         LINE#         142
  C:2B63H         LINE#         143
  C:2B66H         LINE#         145
  C:2B66H         LINE#         146
  C:2B66H         LINE#         147
  C:2B77H         LINE#         149
  C:2B89H         LINE#         150
BL51 BANKED LINKER/LOCATER V6.22.2.0                                                  11/11/2022  18:17:38  PAGE 40


  C:2B89H         LINE#         151
  C:2BA8H         LINE#         152
  C:2BB0H         LINE#         154
  C:2BC0H         LINE#         155
  C:2BC0H         LINE#         156
  C:2BE9H         LINE#         157
  C:2BF1H         LINE#         160
  C:2BF1H         LINE#         161
  C:2BFCH         LINE#         162
  C:2BFFH         LINE#         163
  C:2C02H         LINE#         164
  C:2C05H         LINE#         165
  C:2C1BH         LINE#         166
  C:2C1EH         LINE#         168
  C:2C30H         LINE#         169
  C:2C30H         LINE#         170
  C:2C3DH         LINE#         171
  C:2C53H         LINE#         172
  C:2C55H         LINE#         173
  C:2C5DH         LINE#         175
  C:2C72H         LINE#         176
  C:2C72H         LINE#         177
  C:2C95H         LINE#         178
  C:2C9DH         LINE#         179
  C:2CA6H         LINE#         181
  C:2CA6H         LINE#         183
  C:2CBCH         LINE#         185
  C:2CC1H         LINE#         186
  -------         ENDPROC       _WRITEDATATOONEPAGE
  -------         ENDMOD        EEPROM

  -------         MODULE        LCD
  C:0000H         SYMBOL        _ICE_DUMMY_
  C:7176H         PUBLIC        LCD_Enable
  D:0080H         PUBLIC        P0
  D:0090H         PUBLIC        P1
  D:00A0H         PUBLIC        P2
  D:00B0H         PUBLIC        P3
  D:00D8H         PUBLIC        P4
  C:003EH         PUBLIC        _LCD_Current_Mode
  B:00A8H.7       PUBLIC        EA
  C:6DFFH         PUBLIC        _LCD_SetOnePixel
  D:00A8H         PUBLIC        IE
  D:00C7H         PUBLIC        TA
  D:00B8H         PUBLIC        IP
  C:6EF5H         PUBLIC        _LCD_PowerDown_Display
  C:7111H         PUBLIC        _LCD_Blink
  D:00FCH         PUBLIC        LCDDAT
  D:00FAH         PUBLIC        LCDCLK
  D:0098H         PUBLIC        SCON
  D:0088H         PUBLIC        TCON
  C:6D82H         PUBLIC        _LCD_Interrupt_Initial
  D:00F5H         PUBLIC        LCDCPALCT0
  D:00E9H         PUBLIC        LCDCPALCT1
  D:0091H         PUBLIC        SFRS
  C:689BH         PUBLIC        _LCD_Open
  D:00FBH         PUBLIC        LCDPTR
BL51 BANKED LINKER/LOCATER V6.22.2.0                                                  11/11/2022  18:17:38  PAGE 41


  D:00FDH         PUBLIC        LCDPWR
  D:00C0H         PUBLIC        I2C0CON
  D:00E8H         PUBLIC        I2C1CON
  D:00F1H         PUBLIC        LCDCPUMP
  D:00FEH         PUBLIC        LCDBL
  D:00F9H         PUBLIC        LCDCON0
  D:00F8H         PUBLIC        S1CON
  D:00F4H         PUBLIC        LCDCON1
  C:6ED5H         PUBLIC        _LCD_Clock_Setting
  D:00C8H         PUBLIC        T2CON
  C:71E1H         PUBLIC        LCD_Disable
  C:6AB4H         PUBLIC        _LCD_SetAllPixels
  D:00FFH         PUBLIC        LCDMODE
  D:00D0H         PUBLIC        PSW
  -------         PROC          _LCD_OPEN
  X:070FH         SYMBOL        u8LCDPowerType
  X:0710H         SYMBOL        u8LCDVSource
  X:0711H         SYMBOL        u8DrivingVol
  X:0712H         SYMBOL        u8BiasLevel
  X:0713H         SYMBOL        u8ComNum
  C:689BH         LINE#         28
  C:68A6H         LINE#         29
  C:68A6H         LINE#         30
  C:68A9H         LINE#         31
  C:68ACH         LINE#         33
  C:68B1H         LINE#         35
  C:68BBH         LINE#         36
  C:68BBH         LINE#         37
  C:68C3H         LINE#         38
  C:68C9H         LINE#         39
  C:68C9H         LINE#         41
  C:68D2H         LINE#         42
  C:68D9H         LINE#         43
  C:68DFH         LINE#         44
  C:68E5H         LINE#         46
  -------         ENDPROC       _LCD_OPEN
  -------         PROC          _LCD_CURRENT_MODE
  D:0007H         SYMBOL        u8LCDCurrentSel
  D:0005H         SYMBOL        u8LCDPSSel
  C:003EH         LINE#         60
  C:003EH         LINE#         61
  C:003EH         LINE#         62
  C:0041H         LINE#         63
  C:0046H         LINE#         64
  C:0059H         LINE#         65
  C:0059H         LINE#         66
  C:0059H         LINE#         67
  C:0059H         LINE#         68
  C:005EH         LINE#         69
  C:005EH         LINE#         70
  C:0061H         LINE#         71
  C:0077H         LINE#         72
  C:0077H         LINE#         73
  C:0077H         LINE#         74
  C:007AH         LINE#         75
  C:007AH         LINE#         77
  -------         ENDPROC       _LCD_CURRENT_MODE
BL51 BANKED LINKER/LOCATER V6.22.2.0                                                  11/11/2022  18:17:38  PAGE 42


  -------         PROC          _LCD_CLOCK_SETTING
  D:0007H         SYMBOL        u8LCDCLKSource
  D:0005H         SYMBOL        u8LCDCLKDiv
  C:6ED5H         LINE#         87
  C:6ED5H         LINE#         88
  C:6ED5H         LINE#         89
  C:6ED8H         LINE#         90
  C:6EE0H         LINE#         91
  C:6EE0H         LINE#         92
  C:6EE8H         LINE#         93
  C:6EEEH         LINE#         94
  C:6EEEH         LINE#         95
  C:6EF4H         LINE#         97
  -------         ENDPROC       _LCD_CLOCK_SETTING
  -------         PROC          _LCD_BLINK
  D:0007H         SYMBOL        u8LCDBKStatus
  D:0005H         SYMBOL        u8LCDBKFEQ
  C:7111H         LINE#         110
  C:7111H         LINE#         111
  C:7111H         LINE#         112
  C:7114H         LINE#         113
  C:7117H         LINE#         114
  C:711FH         LINE#         115
  -------         ENDPROC       _LCD_BLINK
  -------         PROC          _LCD_INTERRUPT_INITIAL
  D:0007H         SYMBOL        u8lcdIntStatus
  D:0005H         SYMBOL        u8lcdIntSel
  D:0002H         SYMBOL        u8lcdAlmValue
  -------         DO            
  D:0006H         SYMBOL        datatemp
  -------         ENDDO         
  C:6D82H         LINE#         124
  C:6D82H         LINE#         125
  C:6D82H         LINE#         127
  C:6D85H         LINE#         128
  C:6D8DH         LINE#         129
  C:6D95H         LINE#         130
  C:6D97H         LINE#         131
  C:6D9FH         LINE#         132
  C:6DA1H         LINE#         133
  C:6DA9H         LINE#         134
  C:6DACH         LINE#         135
  -------         ENDPROC       _LCD_INTERRUPT_INITIAL
  -------         PROC          _LCD_SETALLPIXELS
  D:0007H         SYMBOL        u8OnOff
  -------         DO            
  D:0006H         SYMBOL        u8SetValue
  D:0007H         SYMBOL        i
  -------         ENDDO         
  C:6AB4H         LINE#         143
  C:6AB4H         LINE#         144
  C:6AB4H         LINE#         147
  C:6AB7H         LINE#         149
  C:6ABBH         LINE#         151
  C:6ABDH         LINE#         153
  C:6AC0H         LINE#         154
  C:6ACFH         LINE#         155
BL51 BANKED LINKER/LOCATER V6.22.2.0                                                  11/11/2022  18:17:38  PAGE 43


  C:6ACFH         LINE#         156
  C:6ADEH         LINE#         157
  C:6ADEH         LINE#         159
  C:6ADEH         LINE#         160
  C:6AE0H         LINE#         161
  C:6AE2H         LINE#         162
  C:6AE2H         LINE#         164
  C:6AE5H         LINE#         165
  C:6AE8H         LINE#         166
  C:6AEAH         LINE#         167
  C:6AEDH         LINE#         168
  C:6AEFH         LINE#         170
  -------         ENDPROC       _LCD_SETALLPIXELS
  -------         PROC          _LCD_POWERDOWN_DISPLAY
  D:0007H         SYMBOL        u8LCDDisplay
  C:6EF5H         LINE#         178
  C:6EF5H         LINE#         179
  C:6EF5H         LINE#         180
  C:6F03H         LINE#         181
  C:6F03H         LINE#         182
  C:6F03H         LINE#         183
  C:6F0BH         LINE#         184
  C:6F0BH         LINE#         185
  C:6F11H         LINE#         187
  C:6F14H         LINE#         188
  -------         ENDPROC       _LCD_POWERDOWN_DISPLAY
  -------         PROC          _LCD_SETONEPIXEL
  D:0007H         SYMBOL        u8LCDCOM
  D:0005H         SYMBOL        u8LCDSEG
  D:0003H         SYMBOL        u8OnOff
  C:6DFFH         LINE#         199
  C:6DFFH         LINE#         200
  C:6DFFH         LINE#         201
  C:6E02H         LINE#         202
  C:6E06H         LINE#         203
  C:6E09H         LINE#         204
  C:6E17H         LINE#         206
  C:6E25H         LINE#         208
  -------         ENDPROC       _LCD_SETONEPIXEL
  -------         PROC          LCD_ENABLE
  C:7176H         LINE#         211
  C:7176H         LINE#         212
  C:7176H         LINE#         213
  C:717FH         LINE#         214
  -------         ENDPROC       LCD_ENABLE
  -------         PROC          LCD_DISABLE
  C:71E1H         LINE#         216
  C:71E1H         LINE#         217
  C:71E1H         LINE#         218
  C:71E7H         LINE#         219
  -------         ENDPROC       LCD_DISABLE
  -------         ENDMOD        LCD

  -------         MODULE        SYS
  C:0000H         SYMBOL        _ICE_DUMMY_
  D:0080H         PUBLIC        P0
  D:0090H         PUBLIC        P1
BL51 BANKED LINKER/LOCATER V6.22.2.0                                                  11/11/2022  18:17:38  PAGE 44


  D:00A0H         PUBLIC        P2
  D:00B0H         PUBLIC        P3
  D:00D8H         PUBLIC        P4
  B:00A8H.7       PUBLIC        EA
  C:4D58H         PUBLIC        _FsysSelect
  D:00A8H         PUBLIC        IE
  D:0096H         PUBLIC        CKSWT
  C:7043H         PUBLIC        SW_Reset
  D:00C7H         PUBLIC        TA
  D:00B8H         PUBLIC        IP
  D:0097H         PUBLIC        CKEN
  C:5CFEH         PUBLIC        _ClockDisable
  C:63F2H         PUBLIC        FsysSwitchError
  D:0098H         PUBLIC        SCON
  D:0088H         PUBLIC        TCON
  C:575DH         PUBLIC        _ClockEnable
  D:009FH         PUBLIC        CHPCON
  D:0091H         PUBLIC        SFRS
  D:00C0H         PUBLIC        I2C0CON
  D:00E8H         PUBLIC        I2C1CON
  D:00F8H         PUBLIC        S1CON
  C:67ACH         PUBLIC        _ClockSwitch
  D:00C8H         PUBLIC        T2CON
  D:00D0H         PUBLIC        PSW
  -------         PROC          FSYSSWITCHERROR
  C:63F2H         LINE#         14
  C:63F2H         LINE#         15
  C:63F2H         LINE#         16
  C:6408H         LINE#         17
  C:640EH         LINE#         18
  C:6424H         LINE#         19
  C:6439H         LINE#         20
  C:644CH         LINE#         21
  C:644DH         LINE#         22
  -------         ENDPROC       FSYSSWITCHERROR
  -------         PROC          _FSYSSELECT
  D:0007H         SYMBOL        u8FsysMode
  C:4D58H         LINE#         37
  C:4D58H         LINE#         38
  C:4D58H         LINE#         39
  C:4D72H         LINE#         40
  C:4D72H         LINE#         42
  C:4D72H         LINE#         43
  C:4D77H         LINE#         44
  C:4D7CH         LINE#         45
  C:4D81H         LINE#         46
  C:4D86H         LINE#         47
  C:4D8EH         LINE#         48
  C:4D91H         LINE#         49
  C:4DA7H         LINE#         51
  C:4DA8H         LINE#         53
  C:4DA8H         LINE#         54
  C:4DADH         LINE#         55
  C:4DB2H         LINE#         56
  C:4DB7H         LINE#         57
  C:4DBCH         LINE#         58
  C:4DC7H         LINE#         59
BL51 BANKED LINKER/LOCATER V6.22.2.0                                                  11/11/2022  18:17:38  PAGE 45


  C:4DCAH         LINE#         62
  C:4DCBH         LINE#         65
  C:4DCBH         LINE#         66
  C:4DD0H         LINE#         67
  C:4DD5H         LINE#         68
  C:4DEBH         LINE#         69
  C:4DECH         LINE#         72
  C:4DECH         LINE#         75
  C:4DF1H         LINE#         76
  C:4DF6H         LINE#         77
  C:4DFEH         LINE#         78
  C:4E01H         LINE#         79
  C:4E17H         LINE#         82
  C:4E2CH         LINE#         85
  C:4E2DH         LINE#         88
  C:4E2DH         LINE#         89
  C:4E32H         LINE#         90
  C:4E37H         LINE#         91
  C:4E3CH         LINE#         92
  C:4E41H         LINE#         93
  C:4E49H         LINE#         94
  C:4E4CH         LINE#         95
  C:4E62H         LINE#         96
  C:4E77H         LINE#         97
  C:4E77H         LINE#         98
  C:4E77H         LINE#         99
  -------         ENDPROC       _FSYSSELECT
  -------         PROC          _CLOCKENABLE
  D:0007H         SYMBOL        u8FsysMode
  C:575DH         LINE#         101
  C:575DH         LINE#         102
  C:575DH         LINE#         103
  C:5774H         LINE#         104
  C:5774H         LINE#         106
  C:5774H         LINE#         107
  C:578AH         LINE#         108
  C:5797H         LINE#         109
  C:5798H         LINE#         111
  C:5798H         LINE#         112
  C:57AEH         LINE#         113
  C:57B8H         LINE#         114
  C:57B9H         LINE#         116
  C:57B9H         LINE#         117
  C:57CFH         LINE#         118
  C:57D9H         LINE#         119
  C:57DAH         LINE#         121
  C:57DAH         LINE#         122
  C:57F0H         LINE#         123
  C:57FAH         LINE#         124
  C:57FBH         LINE#         126
  C:57FBH         LINE#         127
  C:5811H         LINE#         128
  C:5819H         LINE#         129
  C:5819H         LINE#         130
  C:5819H         LINE#         131
  -------         ENDPROC       _CLOCKENABLE
  -------         PROC          _CLOCKDISABLE
BL51 BANKED LINKER/LOCATER V6.22.2.0                                                  11/11/2022  18:17:38  PAGE 46


  D:0007H         SYMBOL        u8FsysMode
  C:5CFEH         LINE#         133
  C:5CFEH         LINE#         134
  C:5CFEH         LINE#         135
  C:5D0FH         LINE#         136
  C:5D0FH         LINE#         138
  C:5D0FH         LINE#         139
  C:5D25H         LINE#         140
  C:5D26H         LINE#         142
  C:5D26H         LINE#         143
  C:5D3CH         LINE#         144
  C:5D3DH         LINE#         146
  C:5D3DH         LINE#         147
  C:5D53H         LINE#         148
  C:5D54H         LINE#         150
  C:5D54H         LINE#         151
  C:5D6AH         LINE#         152
  C:5D6BH         LINE#         154
  C:5D6BH         LINE#         155
  C:5D81H         LINE#         156
  C:5D81H         LINE#         157
  C:5D81H         LINE#         158
  -------         ENDPROC       _CLOCKDISABLE
  -------         PROC          _CLOCKSWITCH
  D:0007H         SYMBOL        u8FsysMode
  C:67ACH         LINE#         160
  C:67ACH         LINE#         161
  C:67ACH         LINE#         162
  C:67B2H         LINE#         163
  C:67C3H         LINE#         164
  C:67C3H         LINE#         166
  C:67C3H         LINE#         167
  C:67CCH         LINE#         168
  C:67CEH         LINE#         170
  C:67CEH         LINE#         171
  C:67D7H         LINE#         172
  C:67D9H         LINE#         174
  C:67D9H         LINE#         175
  C:67E2H         LINE#         176
  C:67E4H         LINE#         178
  C:67E4H         LINE#         179
  C:67EDH         LINE#         180
  C:67EFH         LINE#         182
  C:67EFH         LINE#         183
  C:67F8H         LINE#         184
  C:67F8H         LINE#         185
  C:67F8H         LINE#         186
  C:67FCH         LINE#         187
  -------         ENDPROC       _CLOCKSWITCH
  -------         PROC          SW_RESET
  C:7043H         LINE#         193
  C:7043H         LINE#         194
  C:7043H         LINE#         195
  C:7059H         LINE#         196
  -------         ENDPROC       SW_RESET
  -------         ENDMOD        SYS

BL51 BANKED LINKER/LOCATER V6.22.2.0                                                  11/11/2022  18:17:38  PAGE 47


  -------         MODULE        ?C_STARTUP
  C:5AC2H         SEGMENT       ?C_C51STARTUP
  I:0021H         SEGMENT       ?STACK
  C:0000H         PUBLIC        ?C_STARTUP
  D:00E0H         SYMBOL        ACC
  D:00F0H         SYMBOL        B
  D:0083H         SYMBOL        DPH
  D:0082H         SYMBOL        DPL
  N:0000H         SYMBOL        IBPSTACK
  N:0100H         SYMBOL        IBPSTACKTOP
  N:0080H         SYMBOL        IDATALEN
  C:5AC5H         SYMBOL        IDATALOOP
  N:0000H         SYMBOL        PBPSTACK
  N:0000H         SYMBOL        PBPSTACKTOP
  N:0000H         SYMBOL        PDATALEN
  N:0000H         SYMBOL        PDATASTART
  N:0000H         SYMBOL        PPAGE
  N:0000H         SYMBOL        PPAGEENABLE
  D:00A0H         SYMBOL        PPAGE_SFR
  D:0081H         SYMBOL        SP
  C:5AC2H         SYMBOL        STARTUP1
  N:0000H         SYMBOL        XBPSTACK
  N:0000H         SYMBOL        XBPSTACKTOP
  N:0FFFH         SYMBOL        XDATALEN
  C:5AD0H         SYMBOL        XDATALOOP
  N:0000H         SYMBOL        XDATASTART
  C:0000H         LINE#         94
  C:5AC2H         LINE#         101
  C:5AC4H         LINE#         102
  C:5AC5H         LINE#         103
  C:5AC6H         LINE#         104
  C:5AC8H         LINE#         108
  C:5ACBH         LINE#         109
  C:5ACDH         LINE#         111
  C:5ACFH         LINE#         115
  C:5AD0H         LINE#         116
  C:5AD1H         LINE#         117
  C:5AD2H         LINE#         118
  C:5AD4H         LINE#         119
  C:5AD6H         LINE#         153
  C:5AD9H         LINE#         157
  -------         ENDMOD        ?C_STARTUP

  -------         MODULE        ADC_USER
  C:0000H         SYMBOL        _ICE_DUMMY_
  D:00F4H         PUBLIC        P2MF54
  D:0080H         PUBLIC        P0
  D:00B5H         PUBLIC        P2M1
  D:0090H         PUBLIC        P1
  D:00B6H         PUBLIC        P2M2
  D:00A0H         PUBLIC        P2
  D:00B0H         PUBLIC        P3
  D:00D8H         PUBLIC        P4
  D:00B1H         PUBLIC        P5
  D:00A8H         PUBLIC        IE
  X:03A0H         PUBLIC        NTC_ADCValue
  C:0D65H         PUBLIC        _Voltage_Display
BL51 BANKED LINKER/LOCATER V6.22.2.0                                                  11/11/2022  18:17:38  PAGE 48


  C:087EH         PUBLIC        _Get_Temp_Bat
  D:00B8H         PUBLIC        IP
  C:5F68H         PUBLIC        _ADC_RUN
  X:0442H         PUBLIC        ADC_Data
  D:00CEH         PUBLIC        AINDIDS0
  D:0098H         PUBLIC        SCON
  D:0088H         PUBLIC        TCON
  B:00A0H.4       PUBLIC        P24
  D:0091H         PUBLIC        SFRS
  C:5FD9H         PUBLIC        ADC_Init
  C:6195H         PUBLIC        Get_NtcValu
  X:04B0H         PUBLIC        Sys_MODE
  D:00C0H         PUBLIC        I2C0CON
  D:00E8H         PUBLIC        I2C1CON
  D:00A1H         PUBLIC        ADCCON0
  D:00E1H         PUBLIC        ADCCON1
  C:7180H         PUBLIC        Get_NTC_Init
  C:6E6FH         PUBLIC        Get_NTC_Temp
  D:00C3H         PUBLIC        ADCRH
  C:31B4H         PUBLIC        Bat_PowerDisplay
  D:00F8H         PUBLIC        S1CON
  D:00C8H         PUBLIC        T2CON
  D:00C2H         PUBLIC        ADCRL
  D:00D0H         PUBLIC        PSW
  -------         PROC          ADC_INIT
  C:5FD9H         LINE#         59
  C:5FD9H         LINE#         60
  C:5FD9H         LINE#         61
  C:5FFCH         LINE#         62
  C:6004H         LINE#         63
  C:600BH         LINE#         64
  C:6014H         LINE#         65
  C:601AH         LINE#         66
  C:6023H         LINE#         67
  C:602CH         LINE#         70
  C:6035H         LINE#         72
  C:6038H         LINE#         73
  C:603EH         LINE#         74
  C:6043H         LINE#         75
  C:6048H         LINE#         76
  -------         ENDPROC       ADC_INIT
  -------         PROC          GET_NTCVALU
  -------         DO            
  X:0760H         SYMBOL        ADCdataAIN
  D:0004H         SYMBOL        Ntc_valu
  -------         ENDDO         
  C:6195H         LINE#         78
  C:6195H         LINE#         79
  C:6195H         LINE#         82
  C:619BH         LINE#         83
  C:61A0H         LINE#         84
  C:61A5H         LINE#         86
  C:61C2H         LINE#         87
  C:61E2H         LINE#         88
  C:61E8H         LINE#         89
  C:61F6H         LINE#         90
  C:61FCH         LINE#         91
BL51 BANKED LINKER/LOCATER V6.22.2.0                                                  11/11/2022  18:17:38  PAGE 49


  C:6201H         LINE#         92
  C:6201H         LINE#         93
  -------         ENDPROC       GET_NTCVALU
  -------         PROC          _ADC_RUN
  D:0007H         SYMBOL        Channel
  -------         DO            
  D:0004H         SYMBOL        ADCdataAIN
  -------         ENDDO         
  C:5F68H         LINE#         95
  C:5F68H         LINE#         96
  C:5F68H         LINE#         110
  C:5F6BH         LINE#         111
  C:5F6BH         LINE#         112
  C:5F8DH         LINE#         113
  C:5F92H         LINE#         114
  C:5F97H         LINE#         115
  C:5F9CH         LINE#         117
  C:5FB3H         LINE#         118
  C:5FC7H         LINE#         119
  C:5FCDH         LINE#         120
  C:5FD3H         LINE#         121
  C:5FD8H         LINE#         122
  C:5FD8H         LINE#         123
  -------         ENDPROC       _ADC_RUN
  -------         PROC          _GET_TEMP_BAT
  D:0007H         SYMBOL        Channel
  -------         DO            
  X:070FH         SYMBOL        i
  -------         DO            
  X:0710H         SYMBOL        i
  -------         ENDDO         
  -------         ENDDO         
  C:087EH         LINE#         125
  C:087EH         LINE#         126
  C:087EH         LINE#         128
  C:088BH         LINE#         129
  C:088BH         LINE#         130
  C:088BH         LINE#         131
  C:088BH         LINE#         132
  C:0890H         LINE#         133
  C:08A0H         LINE#         134
  C:08A0H         LINE#         135
  C:08A2H         LINE#         136
  C:08B1H         LINE#         137
  C:08C0H         LINE#         138
  C:08C5H         LINE#         139
  C:08D8H         LINE#         140
  C:08D8H         LINE#         141
  C:08F6H         LINE#         142
  C:08FBH         LINE#         143
  C:091CH         LINE#         144
  C:0921H         LINE#         145
  C:0929H         LINE#         146
  C:093CH         LINE#         147
  C:093CH         LINE#         148
  C:0959H         LINE#         149
  C:0961H         LINE#         150
BL51 BANKED LINKER/LOCATER V6.22.2.0                                                  11/11/2022  18:17:38  PAGE 50


  C:0989H         LINE#         151
  C:09A3H         LINE#         152
  C:09A9H         LINE#         153
  C:09F2H         LINE#         154
  C:09F8H         LINE#         155
  C:0A0EH         LINE#         156
  C:0A0EH         LINE#         157
  C:0A4FH         LINE#         158
  C:0A4FH         LINE#         159
  C:0A58H         LINE#         160
  C:0A58H         LINE#         161
  C:0ABAH         LINE#         162
  C:0ABCH         LINE#         164
  C:0ABCH         LINE#         165
  C:0B24H         LINE#         166
  C:0B29H         LINE#         167
  C:0B2BH         LINE#         169
  C:0B2BH         LINE#         170
  C:0B2BH         LINE#         171
  C:0B34H         LINE#         172
  C:0B34H         LINE#         173
  C:0B34H         LINE#         174
  C:0B34H         LINE#         175
  C:0B34H         LINE#         176
  C:0B34H         LINE#         178
  C:0B39H         LINE#         179
  C:0B49H         LINE#         180
  C:0B49H         LINE#         181
  C:0B4BH         LINE#         182
  C:0B5AH         LINE#         183
  C:0B69H         LINE#         184
  C:0B71H         LINE#         185
  C:0B85H         LINE#         186
  C:0B85H         LINE#         187
  C:0BA3H         LINE#         188
  C:0BA8H         LINE#         189
  C:0BC9H         LINE#         190
  C:0BCEH         LINE#         191
  C:0BD6H         LINE#         192
  C:0BE8H         LINE#         193
  C:0BE8H         LINE#         194
  C:0C1FH         LINE#         195
  C:0C27H         LINE#         196
  C:0C75H         LINE#         197
  C:0C8EH         LINE#         199
  C:0CDDH         LINE#         200
  C:0CF0H         LINE#         201
  C:0D19H         LINE#         202
  C:0D19H         LINE#         204
  C:0D1CH         LINE#         205
  C:0D1CH         LINE#         206
  C:0D21H         LINE#         207
  C:0D27H         LINE#         208
  C:0D2BH         LINE#         209
  C:0D2CH         LINE#         210
  C:0D2FH         LINE#         211
  C:0D2FH         LINE#         212
BL51 BANKED LINKER/LOCATER V6.22.2.0                                                  11/11/2022  18:17:38  PAGE 51


  C:0D37H         LINE#         213
  C:0D37H         LINE#         214
  C:0D3AH         LINE#         215
  C:0D3AH         LINE#         216
  C:0D4AH         LINE#         217
  C:0D4AH         LINE#         218
  C:0D50H         LINE#         219
  C:0D51H         LINE#         220
  C:0D62H         LINE#         221
  C:0D62H         LINE#         222
  C:0D64H         LINE#         223
  C:0D64H         LINE#         224
  C:0D64H         LINE#         225
  C:0D64H         LINE#         226
  C:0D64H         LINE#         227
  C:0D64H         LINE#         228
  -------         ENDPROC       _GET_TEMP_BAT
  -------         PROC          BAT_POWERDISPLAY
  -------         DO            
  X:0399H         SYMBOL        Pecent80Flag
  X:039AH         SYMBOL        Pecent60Flag
  X:039BH         SYMBOL        Pecent40Flag
  X:039CH         SYMBOL        Pecent20Flag
  X:039DH         SYMBOL        Pecent0Flag
  -------         ENDDO         
  C:31B4H         LINE#         230
  C:31B4H         LINE#         231
  C:31B4H         LINE#         233
  C:31BAH         LINE#         234
  C:31BAH         LINE#         237
  C:31C3H         LINE#         239
  C:31D3H         LINE#         240
  C:31D3H         LINE#         241
  C:31D9H         LINE#         242
  C:31DFH         LINE#         243
  C:31E2H         LINE#         245
  C:3208H         LINE#         246
  C:3208H         LINE#         247
  C:3220H         LINE#         248
  C:3230H         LINE#         249
  C:3230H         LINE#         250
  C:3235H         LINE#         251
  C:3237H         LINE#         252
  C:3240H         LINE#         253
  C:3240H         LINE#         254
  C:3246H         LINE#         255
  C:3248H         LINE#         256
  C:3251H         LINE#         257
  C:3251H         LINE#         258
  C:3257H         LINE#         259
  C:3259H         LINE#         260
  C:3262H         LINE#         261
  C:3262H         LINE#         262
  C:3268H         LINE#         263
  C:326AH         LINE#         264
  C:3273H         LINE#         265
  C:3273H         LINE#         266
BL51 BANKED LINKER/LOCATER V6.22.2.0                                                  11/11/2022  18:17:38  PAGE 52


  C:3279H         LINE#         267
  C:3279H         LINE#         268
  C:3279H         LINE#         270
  C:3281H         LINE#         271
  C:3282H         LINE#         272
  C:3288H         LINE#         273
  C:3288H         LINE#         280
  C:328DH         LINE#         281
  C:3295H         LINE#         283
  C:32A5H         LINE#         284
  C:32A5H         LINE#         285
  C:32AEH         LINE#         286
  C:32AEH         LINE#         287
  C:32B4H         LINE#         288
  C:32B7H         LINE#         289
  C:32C6H         LINE#         290
  C:32C6H         LINE#         291
  C:32CCH         LINE#         292
  C:32D1H         LINE#         293
  C:32D3H         LINE#         294
  C:32D5H         LINE#         295
  C:32D7H         LINE#         296
  C:32D9H         LINE#         297
  C:32DCH         LINE#         299
  C:32DCH         LINE#         300
  C:32E2H         LINE#         301
  C:32E2H         LINE#         302
  C:32E5H         LINE#         303
  C:32F5H         LINE#         304
  C:32F5H         LINE#         305
  C:32FBH         LINE#         306
  C:3302H         LINE#         307
  C:3302H         LINE#         308
  C:3308H         LINE#         309
  C:330BH         LINE#         310
  C:331AH         LINE#         311
  C:331AH         LINE#         312
  C:3320H         LINE#         314
  C:3325H         LINE#         315
  C:3327H         LINE#         316
  C:3329H         LINE#         317
  C:332BH         LINE#         318
  C:332EH         LINE#         320
  C:332EH         LINE#         321
  C:3334H         LINE#         322
  C:3334H         LINE#         323
  C:3337H         LINE#         324
  C:3347H         LINE#         325
  C:3347H         LINE#         326
  C:334DH         LINE#         327
  C:3354H         LINE#         328
  C:3354H         LINE#         329
  C:335AH         LINE#         330
  C:335DH         LINE#         331
  C:336CH         LINE#         332
  C:336CH         LINE#         333
  C:3372H         LINE#         335
BL51 BANKED LINKER/LOCATER V6.22.2.0                                                  11/11/2022  18:17:38  PAGE 53


  C:3377H         LINE#         336
  C:3379H         LINE#         337
  C:337BH         LINE#         338
  C:337EH         LINE#         340
  C:337EH         LINE#         341
  C:3384H         LINE#         342
  C:3384H         LINE#         343
  C:3387H         LINE#         344
  C:3397H         LINE#         345
  C:3397H         LINE#         346
  C:339DH         LINE#         347
  C:33A4H         LINE#         348
  C:33A4H         LINE#         349
  C:33AAH         LINE#         350
  C:33ACH         LINE#         351
  C:33BBH         LINE#         352
  C:33BBH         LINE#         353
  C:33C1H         LINE#         355
  C:33C6H         LINE#         356
  C:33C8H         LINE#         357
  C:33CAH         LINE#         359
  C:33CAH         LINE#         360
  C:33CFH         LINE#         361
  C:33CFH         LINE#         362
  C:33D1H         LINE#         363
  C:33E1H         LINE#         364
  C:33E1H         LINE#         365
  C:33E7H         LINE#         366
  C:33EEH         LINE#         367
  C:33EEH         LINE#         368
  C:33F2H         LINE#         369
  C:33F4H         LINE#         370
  C:3403H         LINE#         371
  C:3403H         LINE#         372
  C:3408H         LINE#         374
  C:340CH         LINE#         375
  C:340EH         LINE#         377
  C:340EH         LINE#         379
  C:3413H         LINE#         380
  C:3413H         LINE#         381
  C:3415H         LINE#         383
  C:3415H         LINE#         384
  C:341BH         LINE#         386
  C:3420H         LINE#         397
  C:3420H         LINE#         398
  C:3428H         LINE#         399
  C:3428H         LINE#         400
  -------         ENDPROC       BAT_POWERDISPLAY
  -------         PROC          GET_NTC_TEMP
  C:6E6FH         LINE#         402
  C:6E6FH         LINE#         403
  C:6E6FH         LINE#         404
  C:6E77H         LINE#         405
  C:6E77H         LINE#         406
  C:6E84H         LINE#         407
  C:6E89H         LINE#         408
  C:6E89H         LINE#         409
BL51 BANKED LINKER/LOCATER V6.22.2.0                                                  11/11/2022  18:17:38  PAGE 54


  C:6E91H         LINE#         410
  -------         ENDPROC       GET_NTC_TEMP
  -------         PROC          GET_NTC_INIT
  C:7180H         LINE#         412
  C:7180H         LINE#         413
  C:7180H         LINE#         414
  C:7188H         LINE#         415
  -------         ENDPROC       GET_NTC_INIT
  -------         PROC          _VOLTAGE_DISPLAY
  X:0713H         SYMBOL        percent
  -------         DO            
  X:039EH         SYMBOL        flash_time
  -------         ENDDO         
  C:0D65H         LINE#         417
  C:0D6AH         LINE#         418
  C:0D6AH         LINE#         420
  C:0D70H         LINE#         421
  C:0D70H         LINE#         422
  C:0D92H         LINE#         423
  C:0D92H         LINE#         424
  C:0D92H         LINE#         425
  C:0DA1H         LINE#         426
  C:0DA1H         LINE#         427
  C:0DAAH         LINE#         428
  C:0DB3H         LINE#         429
  C:0DBCH         LINE#         430
  C:0DC5H         LINE#         431
  C:0DCEH         LINE#         432
  C:0DD4H         LINE#         433
  C:0DD5H         LINE#         434
  C:0E07H         LINE#         435
  C:0E07H         LINE#         436
  C:0E10H         LINE#         437
  C:0E19H         LINE#         438
  C:0E22H         LINE#         439
  C:0E2BH         LINE#         440
  C:0E39H         LINE#         442
  C:0E45H         LINE#         443
  C:0E45H         LINE#         444
  C:0E4EH         LINE#         445
  C:0E4FH         LINE#         446
  C:0E5EH         LINE#         447
  C:0E5EH         LINE#         448
  C:0E66H         LINE#         449
  C:0E6DH         LINE#         450
  C:0E6DH         LINE#         451
  C:0E6DH         LINE#         452
  C:0E6EH         LINE#         454
  C:0E6EH         LINE#         455
  C:0E77H         LINE#         456
  C:0E80H         LINE#         457
  C:0E89H         LINE#         458
  C:0E92H         LINE#         459
  C:0EA0H         LINE#         461
  C:0EACH         LINE#         462
  C:0EACH         LINE#         463
  C:0EB5H         LINE#         464
BL51 BANKED LINKER/LOCATER V6.22.2.0                                                  11/11/2022  18:17:38  PAGE 55


  C:0EB6H         LINE#         465
  C:0EC5H         LINE#         466
  C:0EC5H         LINE#         467
  C:0ECDH         LINE#         468
  C:0ED4H         LINE#         469
  C:0ED4H         LINE#         470
  C:0ED5H         LINE#         471
  C:0ED5H         LINE#         472
  C:0EDEH         LINE#         473
  C:0EE7H         LINE#         474
  C:0EF0H         LINE#         475
  C:0EF9H         LINE#         476
  C:0F07H         LINE#         478
  C:0F13H         LINE#         479
  C:0F13H         LINE#         480
  C:0F1BH         LINE#         481
  C:0F1CH         LINE#         482
  C:0F2BH         LINE#         483
  C:0F2BH         LINE#         484
  C:0F32H         LINE#         485
  C:0F39H         LINE#         486
  C:0F39H         LINE#         488
  C:0F3AH         LINE#         489
  C:0F3AH         LINE#         490
  C:0F48H         LINE#         492
  C:0F51H         LINE#         493
  C:0F5AH         LINE#         494
  C:0F62H         LINE#         495
  C:0F6BH         LINE#         496
  C:0F77H         LINE#         497
  C:0F77H         LINE#         498
  C:0F7FH         LINE#         499
  C:0F80H         LINE#         500
  C:0F8FH         LINE#         501
  C:0F8FH         LINE#         502
  C:0F96H         LINE#         503
  C:0F9DH         LINE#         504
  C:0F9DH         LINE#         505
  C:0F9EH         LINE#         506
  C:0F9EH         LINE#         508
  C:0FACH         LINE#         509
  C:0FB5H         LINE#         510
  C:0FBEH         LINE#         511
  C:0FC6H         LINE#         512
  C:0FCEH         LINE#         513
  C:0FDAH         LINE#         514
  C:0FDAH         LINE#         515
  C:0FE3H         LINE#         516
  C:0FE4H         LINE#         517
  C:0FF3H         LINE#         518
  C:0FF3H         LINE#         519
  C:0FFBH         LINE#         520
  C:1002H         LINE#         521
  C:1002H         LINE#         522
  C:1003H         LINE#         523
  C:1003H         LINE#         524
  C:1003H         LINE#         525
BL51 BANKED LINKER/LOCATER V6.22.2.0                                                  11/11/2022  18:17:38  PAGE 56


  C:1003H         LINE#         526
  C:1004H         LINE#         527
  C:100AH         LINE#         528
  C:100AH         LINE#         529
  C:1029H         LINE#         530
  C:1029H         LINE#         531
  C:1029H         LINE#         532
  C:1032H         LINE#         533
  C:103BH         LINE#         534
  C:1044H         LINE#         535
  C:104DH         LINE#         536
  C:1056H         LINE#         538
  C:1057H         LINE#         539
  C:1057H         LINE#         540
  C:1060H         LINE#         541
  C:1069H         LINE#         542
  C:1072H         LINE#         543
  C:107BH         LINE#         544
  C:1084H         LINE#         545
  C:1085H         LINE#         546
  C:1085H         LINE#         547
  C:108EH         LINE#         548
  C:1097H         LINE#         549
  C:10A0H         LINE#         550
  C:10A9H         LINE#         551
  C:10B2H         LINE#         552
  C:10B2H         LINE#         553
  C:10BBH         LINE#         554
  C:10C4H         LINE#         555
  C:10CDH         LINE#         556
  C:10D6H         LINE#         557
  C:10DEH         LINE#         558
  C:10DFH         LINE#         559
  C:10DFH         LINE#         560
  C:10EEH         LINE#         561
  C:10EEH         LINE#         562
  C:10F6H         LINE#         563
  C:10FFH         LINE#         564
  C:1108H         LINE#         565
  C:1111H         LINE#         566
  C:1119H         LINE#         567
  C:111AH         LINE#         569
  C:111AH         LINE#         570
  C:1128H         LINE#         571
  C:1130H         LINE#         572
  C:1139H         LINE#         574
  C:1142H         LINE#         575
  C:114AH         LINE#         576
  C:1156H         LINE#         577
  C:1156H         LINE#         578
  C:115FH         LINE#         579
  C:1168H         LINE#         580
  C:1169H         LINE#         581
  C:1175H         LINE#         582
  C:1175H         LINE#         583
  C:117DH         LINE#         584
  C:1186H         LINE#         585
BL51 BANKED LINKER/LOCATER V6.22.2.0                                                  11/11/2022  18:17:38  PAGE 57


  C:118DH         LINE#         586
  C:118DH         LINE#         587
  C:118DH         LINE#         589
  C:118DH         LINE#         591
  C:118DH         LINE#         592
  C:118DH         LINE#         593
  C:118DH         LINE#         594
  C:118DH         LINE#         595
  -------         ENDPROC       _VOLTAGE_DISPLAY
  -------         ENDMOD        ADC_USER

  -------         MODULE        CO2
  C:0000H         SYMBOL        _ICE_DUMMY_
  D:0080H         PUBLIC        P0
  D:0090H         PUBLIC        P1
  D:00A0H         PUBLIC        P2
  D:00B0H         PUBLIC        P3
  D:00D8H         PUBLIC        P4
  D:00A8H         PUBLIC        IE
  D:00B8H         PUBLIC        IP
  C:18D8H         PUBLIC        _Display_Co2
  X:0681H         PUBLIC        CO2_Data
  C:6F70H         PUBLIC        Get_CO2_Data
  B:00F8H.0       PUBLIC        RI_1
  B:00A0H.1       PUBLIC        P21
  D:0098H         PUBLIC        SCON
  D:0088H         PUBLIC        TCON
  C:6E26H         PUBLIC        _Get_Cs
  C:7148H         PUBLIC        CO2_Init
  C:597CH         PUBLIC        UART1_ISR
  D:0091H         PUBLIC        SFRS
  C:660BH         PUBLIC        Get_CO2_VersionNum
  C:5B5CH         PUBLIC        Recieve_Data_Analysis
  D:00C0H         PUBLIC        I2C0CON
  D:00E8H         PUBLIC        I2C1CON
  X:06B6H         PUBLIC        Start_Display_RXData
  C:6662H         PUBLIC        Get_CO2Valu
  D:009AH         PUBLIC        SBUF1
  D:00F8H         PUBLIC        S1CON
  D:00C8H         PUBLIC        T2CON
  C:7189H         PUBLIC        Get_Co2Value
  D:00D0H         PUBLIC        PSW
  -------         PROC          CO2_INIT
  C:7148H         LINE#         38
  C:7148H         LINE#         39
  C:7148H         LINE#         40
  C:7151H         LINE#         41
  C:7153H         LINE#         42
  -------         ENDPROC       CO2_INIT
  -------         PROC          GET_CO2VALU
  C:6662H         LINE#         44
  C:6662H         LINE#         45
  C:6662H         LINE#         47
  C:6668H         LINE#         48
  C:666CH         LINE#         49
  C:666EH         LINE#         50
  C:667FH         LINE#         51
BL51 BANKED LINKER/LOCATER V6.22.2.0                                                  11/11/2022  18:17:38  PAGE 58


  C:6687H         LINE#         52
  C:668FH         LINE#         53
  C:6697H         LINE#         54
  C:669FH         LINE#         55
  C:66A5H         LINE#         56
  C:66B5H         LINE#         57
  -------         ENDPROC       GET_CO2VALU
  -------         PROC          GET_CO2_VERSIONNUM
  C:660BH         LINE#         59
  C:660BH         LINE#         60
  C:660BH         LINE#         61
  C:6611H         LINE#         62
  C:6615H         LINE#         63
  C:6619H         LINE#         64
  C:662BH         LINE#         65
  C:6633H         LINE#         66
  C:663BH         LINE#         67
  C:6643H         LINE#         68
  C:664BH         LINE#         69
  C:6651H         LINE#         70
  C:6661H         LINE#         71
  -------         ENDPROC       GET_CO2_VERSIONNUM
  -------         PROC          UART1_ISR
  C:597CH         LINE#         74
  C:5999H         LINE#         76
  C:599BH         LINE#         77
  C:599EH         LINE#         78
  C:599EH         LINE#         79
  C:59A4H         LINE#         80
  C:59AAH         LINE#         81
  C:59AAH         LINE#         82
  C:59B2H         LINE#         83
  C:59B2H         LINE#         84
  C:59BFH         LINE#         85
  C:59C7H         LINE#         86
  C:59CDH         LINE#         87
  C:59CDH         LINE#         88
  C:59CFH         LINE#         89
  C:59D7H         LINE#         90
  C:59D7H         LINE#         91
  C:59DBH         LINE#         92
  C:59EEH         LINE#         93
  C:5A02H         LINE#         94
  C:5A02H         LINE#         95
  C:5A08H         LINE#         96
  C:5A08H         LINE#         97
  C:5A08H         LINE#         99
  C:5A0AH         LINE#         100
  C:5A0AH         LINE#         101
  C:5A0CH         LINE#         102
  -------         ENDPROC       UART1_ISR
  -------         PROC          RECIEVE_DATA_ANALYSIS
  -------         DO            
  X:067DH         SYMBOL        Times
  -------         ENDDO         
  C:5B5CH         LINE#         104
  C:5B5CH         LINE#         105
BL51 BANKED LINKER/LOCATER V6.22.2.0                                                  11/11/2022  18:17:38  PAGE 59


  C:5B5CH         LINE#         107
  C:5B64H         LINE#         108
  C:5B64H         LINE#         110
  C:5B7BH         LINE#         111
  C:5B7BH         LINE#         112
  C:5B8DH         LINE#         113
  C:5B92H         LINE#         114
  C:5BA7H         LINE#         115
  C:5BACH         LINE#         116
  C:5BB2H         LINE#         117
  C:5BB3H         LINE#         119
  C:5BB3H         LINE#         120
  C:5BB8H         LINE#         121
  C:5BBAH         LINE#         122
  C:5BC0H         LINE#         123
  C:5BC0H         LINE#         124
  C:5BC1H         LINE#         125
  C:5BC7H         LINE#         126
  C:5BC7H         LINE#         127
  C:5BD5H         LINE#         128
  C:5BE4H         LINE#         129
  C:5BE4H         LINE#         130
  C:5BE9H         LINE#         131
  C:5BEBH         LINE#         132
  C:5BF1H         LINE#         133
  C:5BF1H         LINE#         134
  C:5BF1H         LINE#         135
  -------         ENDPROC       RECIEVE_DATA_ANALYSIS
  -------         PROC          _GET_CS
  D:0001H         SYMBOL        Lens
  -------         DO            
  D:0006H         SYMBOL        Sum
  D:0005H         SYMBOL        i
  D:0004H         SYMBOL        Cs_r
  -------         ENDDO         
  C:6E26H         LINE#         137
  C:6E28H         LINE#         138
  C:6E28H         LINE#         139
  C:6E2BH         LINE#         140
  C:6E2CH         LINE#         141
  C:6E2DH         LINE#         142
  C:6E32H         LINE#         143
  C:6E32H         LINE#         144
  C:6E42H         LINE#         145
  C:6E45H         LINE#         146
  C:6E49H         LINE#         147
  C:6E4AH         LINE#         148
  -------         ENDPROC       _GET_CS
  -------         PROC          _DISPLAY_CO2
  X:0713H         SYMBOL        Dis_Mod
  -------         DO            
  X:0714H         SYMBOL        co2gw
  X:0715H         SYMBOL        co2sw
  X:0716H         SYMBOL        co2bw
  X:0717H         SYMBOL        co2qw
  X:0718H         SYMBOL        C02Value_Dis
  X:067FH         SYMBOL        Time_Reflash
BL51 BANKED LINKER/LOCATER V6.22.2.0                                                  11/11/2022  18:17:38  PAGE 60


  X:0680H         SYMBOL        i
  -------         ENDDO         
  C:18D8H         LINE#         150
  C:18DDH         LINE#         151
  C:18DDH         LINE#         156
  C:18E8H         LINE#         157
  C:18E8H         LINE#         158
  C:18EEH         LINE#         159
  C:18FBH         LINE#         160
  C:18FBH         LINE#         161
  C:1919H         LINE#         162
  C:1936H         LINE#         163
  C:1954H         LINE#         164
  C:195FH         LINE#         165
  C:1976H         LINE#         166
  C:1976H         LINE#         167
  C:1982H         LINE#         168
  C:198AH         LINE#         169
  C:1993H         LINE#         170
  C:199CH         LINE#         171
  C:19A5H         LINE#         173
  C:19AEH         LINE#         174
  C:19B7H         LINE#         175
  C:19C0H         LINE#         177
  C:19C8H         LINE#         178
  C:19D1H         LINE#         179
  C:19DAH         LINE#         180
  C:19E3H         LINE#         182
  C:19EBH         LINE#         183
  C:19F4H         LINE#         184
  C:19FDH         LINE#         185
  C:1A06H         LINE#         187
  C:1A0EH         LINE#         188
  C:1A17H         LINE#         189
  C:1A20H         LINE#         190
  C:1A29H         LINE#         192
  C:1A32H         LINE#         193
  C:1A3BH         LINE#         194
  C:1A44H         LINE#         195
  C:1A44H         LINE#         196
  C:1A6DH         LINE#         197
  C:1A6DH         LINE#         198
  C:1A79H         LINE#         199
  C:1A85H         LINE#         200
  C:1A8DH         LINE#         201
  C:1A96H         LINE#         202
  C:1A9FH         LINE#         203
  C:1AA8H         LINE#         205
  C:1AB1H         LINE#         206
  C:1ABAH         LINE#         207
  C:1AC3H         LINE#         209
  C:1ACBH         LINE#         210
  C:1AD4H         LINE#         211
  C:1ADDH         LINE#         212
  C:1AE6H         LINE#         214
  C:1AEFH         LINE#         215
  C:1AF8H         LINE#         216
BL51 BANKED LINKER/LOCATER V6.22.2.0                                                  11/11/2022  18:17:38  PAGE 61


  C:1B01H         LINE#         217
  C:1B01H         LINE#         218
  C:1B24H         LINE#         219
  C:1B24H         LINE#         220
  C:1B30H         LINE#         221
  C:1B3CH         LINE#         222
  C:1B48H         LINE#         224
  C:1B50H         LINE#         225
  C:1B59H         LINE#         226
  C:1B62H         LINE#         227
  C:1B6BH         LINE#         229
  C:1B74H         LINE#         230
  C:1B7DH         LINE#         231
  C:1B86H         LINE#         232
  C:1B86H         LINE#         233
  C:1B9DH         LINE#         234
  C:1B9DH         LINE#         235
  C:1BA9H         LINE#         236
  C:1BB5H         LINE#         237
  C:1BC1H         LINE#         238
  C:1BCDH         LINE#         239
  C:1BCDH         LINE#         240
  C:1BCEH         LINE#         242
  C:1BCEH         LINE#         243
  C:1BD3H         LINE#         244
  C:1BD7H         LINE#         245
  C:1BE1H         LINE#         246
  C:1BE1H         LINE#         247
  C:1BE6H         LINE#         248
  C:1BEAH         LINE#         249
  C:1BEAH         LINE#         250
  C:1BEAH         LINE#         251
  C:1BEAH         LINE#         366
  -------         ENDPROC       _DISPLAY_CO2
  -------         PROC          GET_CO2VALUE
  C:7189H         LINE#         368
  C:7189H         LINE#         369
  C:7189H         LINE#         370
  C:7191H         LINE#         371
  -------         ENDPROC       GET_CO2VALUE
  -------         PROC          GET_CO2_DATA
  C:6F70H         LINE#         373
  C:6F70H         LINE#         374
  C:6F70H         LINE#         375
  C:6F7EH         LINE#         376
  C:6F7EH         LINE#         377
  C:6F7EH         LINE#         378
  C:6F80H         LINE#         379
  C:6F83H         LINE#         380
  C:6F84H         LINE#         381
  C:6F84H         LINE#         382
  C:6F86H         LINE#         383
  C:6F89H         LINE#         384
  C:6F8AH         LINE#         385
  C:6F8AH         LINE#         386
  C:6F8CH         LINE#         387
  C:6F8CH         LINE#         388
BL51 BANKED LINKER/LOCATER V6.22.2.0                                                  11/11/2022  18:17:38  PAGE 62


  C:6F8CH         LINE#         390
  C:6F8CH         LINE#         391
  C:6F8CH         LINE#         392
  -------         ENDPROC       GET_CO2_DATA
  -------         ENDMOD        CO2

  -------         MODULE        CRC8_NRSC5
  C:0000H         SYMBOL        _ICE_DUMMY_
  D:0080H         PUBLIC        P0
  D:0090H         PUBLIC        P1
  D:00A0H         PUBLIC        P2
  D:00B0H         PUBLIC        P3
  D:00D8H         PUBLIC        P4
  D:00A8H         PUBLIC        IE
  D:00B8H         PUBLIC        IP
  D:0098H         PUBLIC        SCON
  D:0088H         PUBLIC        TCON
  C:64A9H         PUBLIC        _crc8_nrsc5
  D:00C0H         PUBLIC        I2C0CON
  D:00E8H         PUBLIC        I2C1CON
  D:00F8H         PUBLIC        S1CON
  D:00C8H         PUBLIC        T2CON
  D:00D0H         PUBLIC        PSW
  -------         PROC          _CRC8_NRSC5
  X:0714H         SYMBOL        Data
  X:0717H         SYMBOL        length
  -------         DO            
  D:0007H         SYMBOL        i
  D:0006H         SYMBOL        crc
  -------         ENDDO         
  C:64A9H         LINE#         12
  C:64BAH         LINE#         13
  C:64BAH         LINE#         14
  C:64BCH         LINE#         15
  C:64BEH         LINE#         16
  C:64CCH         LINE#         17
  C:64CCH         LINE#         18
  C:64E1H         LINE#         20
  C:64EDH         LINE#         21
  C:64EDH         LINE#         22
  C:64F1H         LINE#         23
  C:64F8H         LINE#         25
  C:64FCH         LINE#         26
  C:64FFH         LINE#         27
  C:64FFH         LINE#         28
  C:6501H         LINE#         29
  -------         ENDPROC       _CRC8_NRSC5
  -------         ENDMOD        CRC8_NRSC5

  -------         MODULE        EEPROM_USER
  C:0000H         SYMBOL        _ICE_DUMMY_
  D:0080H         PUBLIC        P0
  D:0090H         PUBLIC        P1
  D:00A0H         PUBLIC        P2
  D:00B0H         PUBLIC        P3
  D:00D8H         PUBLIC        P4
  B:00A8H.7       PUBLIC        EA
BL51 BANKED LINKER/LOCATER V6.22.2.0                                                  11/11/2022  18:17:38  PAGE 63


  D:00A8H         PUBLIC        IE
  D:00C7H         PUBLIC        TA
  C:4160H         PUBLIC        _EEPROM_Write_SensorData
  D:00B8H         PUBLIC        IP
  D:0098H         PUBLIC        SCON
  D:0088H         PUBLIC        TCON
  D:009FH         PUBLIC        CHPCON
  C:24A9H         PUBLIC        EEPROM_ReadDataInit
  D:0091H         PUBLIC        SFRS
  D:00A5H         PUBLIC        IAPUEN
  D:00A4H         PUBLIC        IAPTRG
  C:3CD6H         PUBLIC        Get_Avg_Valu_24h
  D:00C0H         PUBLIC        I2C0CON
  D:00E8H         PUBLIC        I2C1CON
  C:5E79H         PUBLIC        Get_Max_Valu_24h
  D:00A7H         PUBLIC        IAPAH
  D:00F8H         PUBLIC        S1CON
  D:00AEH         PUBLIC        IAPFD
  D:00C8H         PUBLIC        T2CON
  D:00A6H         PUBLIC        IAPAL
  D:00AFH         PUBLIC        IAPCN
  C:713BH         PUBLIC        Get_Avg_Valu_CO2_24h
  C:712EH         PUBLIC        Get_Max_Valu_CO2_24h
  X:0200H         PUBLIC        SensorData
  D:00D0H         PUBLIC        PSW
  C:49BAH         PUBLIC        _Write_DATAFLASH
  X:0319H         PUBLIC        page_buffer
  -------         PROC          _WRITE_DATAFLASH
  D:0006H         SYMBOL        u16EPAddr
  D:0001H         SYMBOL        u8EPData
  X:0717H         SYMBOL        len
  -------         DO            
  D:0005H         SYMBOL        looptmp
  X:0718H         SYMBOL        u16_addrl_r
  -------         ENDDO         
  C:49BAH         LINE#         18
  C:49BAH         LINE#         19
  C:49BAH         LINE#         20
  C:49BCH         LINE#         24
  C:49D8H         LINE#         27
  C:49E4H         LINE#         28
  C:49E4H         LINE#         30
  C:49E9H         LINE#         31
  C:49E9H         LINE#         32
  C:49F9H         LINE#         33
  C:4A00H         LINE#         34
  C:4A02H         LINE#         35
  C:4A0EH         LINE#         37
  C:4A11H         LINE#         41
  C:4A1AH         LINE#         42
  C:4A1DH         LINE#         43
  C:4A20H         LINE#         44
  C:4A36H         LINE#         45
  C:4A4BH         LINE#         46
  C:4A4EH         LINE#         47
  C:4A63H         LINE#         50
  C:4A78H         LINE#         51
BL51 BANKED LINKER/LOCATER V6.22.2.0                                                  11/11/2022  18:17:38  PAGE 64


  C:4A8DH         LINE#         52
  C:4A90H         LINE#         55
  C:4A9BH         LINE#         56
  C:4A9BH         LINE#         57
  C:4AA3H         LINE#         58
  C:4AA6H         LINE#         59
  C:4AB3H         LINE#         60
  C:4AC9H         LINE#         61
  C:4AC9H         LINE#         55
  C:4ACCH         LINE#         63
  C:4AE2H         LINE#         64
  C:4AF7H         LINE#         65
  -------         ENDPROC       _WRITE_DATAFLASH
  -------         PROC          _EEPROM_WRITE_SENSORDATA
  D:0007H         SYMBOL        SaveType
  X:070FH         SYMBOL        DataType
  -------         DO            
  X:0710H         SYMBOL        Crc16
  -------         ENDDO         
  C:4160H         LINE#         67
  C:4165H         LINE#         68
  C:4165H         LINE#         69
  C:416BH         LINE#         70
  C:416BH         LINE#         72
  C:416BH         LINE#         73
  C:416BH         LINE#         74
  C:4174H         LINE#         75
  C:4174H         LINE#         76
  C:417DH         LINE#         77
  C:417DH         LINE#         79
  C:417FH         LINE#         80
  C:4181H         LINE#         81
  C:4183H         LINE#         82
  C:4189H         LINE#         83
  C:4189H         LINE#         84
  C:418DH         LINE#         85
  C:418FH         LINE#         86
  C:418FH         LINE#         87
  C:41A1H         LINE#         88
  C:41A3H         LINE#         89
  C:41B6H         LINE#         90
  C:41CAH         LINE#         91
  C:41DEH         LINE#         92
  C:41DEH         LINE#         93
  C:41F1H         LINE#         94
  C:41F1H         LINE#         95
  C:41F3H         LINE#         96
  C:41F3H         LINE#         97
  C:41FEH         LINE#         98
  C:41FEH         LINE#         99
  C:4215H         LINE#         100
  C:422AH         LINE#         101
  C:4232H         LINE#         102
  C:423AH         LINE#         103
  C:424DH         LINE#         104
  C:425AH         LINE#         105
  C:425DH         LINE#         106
BL51 BANKED LINKER/LOCATER V6.22.2.0                                                  11/11/2022  18:17:38  PAGE 65


  C:425FH         LINE#         107
  C:427EH         LINE#         109
  C:429EH         LINE#         110
  C:42B1H         LINE#         111
  C:42BBH         LINE#         112
  C:42BBH         LINE#         113
  C:42DAH         LINE#         114
  C:42DAH         LINE#         115
  C:42DCH         LINE#         116
  C:42DCH         LINE#         117
  C:42DCH         LINE#         118
  C:42DCH         LINE#         119
  C:42DCH         LINE#         121
  C:42DCH         LINE#         122
  C:42DCH         LINE#         124
  C:42DCH         LINE#         125
  C:42DCH         LINE#         127
  C:42DCH         LINE#         128
  C:42DCH         LINE#         130
  C:42DCH         LINE#         131
  C:42DCH         LINE#         132
  C:42DCH         LINE#         133
  -------         ENDPROC       _EEPROM_WRITE_SENSORDATA
  -------         PROC          EEPROM_READDATAINIT
  -------         DO            
  X:070FH         SYMBOL        OneCircle_Flag
  X:0710H         SYMBOL        Save_AddrP
  X:0711H         SYMBOL        CO2Value_H
  X:0712H         SYMBOL        CO2Value_L
  X:0713H         SYMBOL        i
  -------         ENDDO         
  C:24A9H         LINE#         136
  C:24A9H         LINE#         137
  C:24A9H         LINE#         143
  C:24ABH         LINE#         144
  C:24C1H         LINE#         145
  C:24D5H         LINE#         146
  C:24D5H         LINE#         147
  C:24EBH         LINE#         148
  C:24FFH         LINE#         149
  C:24FFH         LINE#         150
  C:2504H         LINE#         151
  C:2506H         LINE#         152
  C:2508H         LINE#         153
  C:250AH         LINE#         154
  C:250CH         LINE#         155
  C:2514H         LINE#         156
  C:2516H         LINE#         158
  C:2516H         LINE#         159
  C:251EH         LINE#         160
  C:2526H         LINE#         161
  C:252EH         LINE#         162
  C:2536H         LINE#         163
  C:253EH         LINE#         164
  C:2546H         LINE#         165
  C:254EH         LINE#         166
  C:254EH         LINE#         168
BL51 BANKED LINKER/LOCATER V6.22.2.0                                                  11/11/2022  18:17:38  PAGE 66


  C:2550H         LINE#         170
  C:2550H         LINE#         171
  C:2558H         LINE#         172
  C:2560H         LINE#         173
  C:2568H         LINE#         174
  C:2570H         LINE#         175
  C:2578H         LINE#         176
  C:2580H         LINE#         177
  C:2588H         LINE#         178
  C:2588H         LINE#         180
  C:25AAH         LINE#         181
  C:25BDH         LINE#         182
  C:25CAH         LINE#         183
  C:25D3H         LINE#         184
  C:25E5H         LINE#         186
  C:25FFH         LINE#         187
  C:25FFH         LINE#         188
  C:2621H         LINE#         190
  C:262EH         LINE#         191
  C:2637H         LINE#         192
  C:2649H         LINE#         193
  C:2660H         LINE#         194
  C:2660H         LINE#         195
  C:2676H         LINE#         196
  C:2676H         LINE#         197
  C:2682H         LINE#         198
  C:268AH         LINE#         199
  C:268AH         LINE#         201
  C:268AH         LINE#         202
  C:269CH         LINE#         203
  C:269CH         LINE#         204
  C:26B5H         LINE#         205
  C:26BDH         LINE#         206
  C:26C6H         LINE#         207
  C:26CEH         LINE#         208
  C:26DEH         LINE#         209
  C:26EDH         LINE#         210
  C:26F0H         LINE#         211
  C:26F8H         LINE#         212
  C:26F8H         LINE#         213
  C:26FAH         LINE#         215
  C:26FAH         LINE#         216
  C:270CH         LINE#         217
  C:270CH         LINE#         218
  C:2725H         LINE#         219
  C:272DH         LINE#         220
  C:2736H         LINE#         221
  C:273EH         LINE#         222
  C:274EH         LINE#         223
  C:275DH         LINE#         224
  C:2760H         LINE#         225
  C:2768H         LINE#         226
  C:2768H         LINE#         227
  C:276AH         LINE#         228
  -------         ENDPROC       EEPROM_READDATAINIT
  -------         PROC          GET_MAX_VALU_24H
  -------         DO            
BL51 BANKED LINKER/LOCATER V6.22.2.0                                                  11/11/2022  18:17:38  PAGE 67


  D:0005H         SYMBOL        i
  X:070FH         SYMBOL        Max_Valu_24h
  X:0711H         SYMBOL        Max_Valu_24h_Temp
  -------         ENDDO         
  C:5E79H         LINE#         231
  C:5E79H         LINE#         232
  C:5E79H         LINE#         236
  C:5E85H         LINE#         237
  C:5E85H         LINE#         238
  C:5E99H         LINE#         239
  C:5EA2H         LINE#         240
  C:5EBBH         LINE#         241
  C:5ECDH         LINE#         242
  C:5ECDH         LINE#         243
  C:5EDBH         LINE#         244
  C:5EDBH         LINE#         245
  C:5EDFH         LINE#         246
  C:5EF0H         LINE#         247
  -------         ENDPROC       GET_MAX_VALU_24H
  -------         PROC          GET_AVG_VALU_24H
  -------         DO            
  X:070FH         SYMBOL        i
  X:0710H         SYMBOL        Avg_Valu_24h
  X:0712H         SYMBOL        Avg_Valu_24h_Temp
  X:0714H         SYMBOL        Avg_Valu_24h_Sum
  -------         ENDDO         
  C:3CD6H         LINE#         249
  C:3CD6H         LINE#         250
  C:3CD6H         LINE#         252
  C:3CDDH         LINE#         253
  C:3CE1H         LINE#         254
  C:3CE9H         LINE#         255
  C:3CF2H         LINE#         256
  C:3CF2H         LINE#         257
  C:3D0FH         LINE#         258
  C:3D0FH         LINE#         259
  C:3D24H         LINE#         260
  C:3D2DH         LINE#         261
  C:3D46H         LINE#         262
  C:3D6FH         LINE#         263
  C:3D79H         LINE#         264
  C:3DB5H         LINE#         266
  C:3DB8H         LINE#         268
  C:3DB8H         LINE#         269
  C:3DCAH         LINE#         270
  C:3DCAH         LINE#         271
  C:3DDFH         LINE#         272
  C:3DE8H         LINE#         273
  C:3E01H         LINE#         274
  C:3E2AH         LINE#         275
  C:3E33H         LINE#         276
  C:3E52H         LINE#         278
  C:3E52H         LINE#         282
  C:3E63H         LINE#         283
  -------         ENDPROC       GET_AVG_VALU_24H
  -------         PROC          GET_MAX_VALU_CO2_24H
  C:712EH         LINE#         285
BL51 BANKED LINKER/LOCATER V6.22.2.0                                                  11/11/2022  18:17:38  PAGE 68


  C:712EH         LINE#         286
  C:712EH         LINE#         287
  C:713AH         LINE#         288
  -------         ENDPROC       GET_MAX_VALU_CO2_24H
  -------         PROC          GET_AVG_VALU_CO2_24H
  C:713BH         LINE#         290
  C:713BH         LINE#         291
  C:713BH         LINE#         292
  C:7147H         LINE#         293
  -------         ENDPROC       GET_AVG_VALU_CO2_24H
  -------         ENDMOD        EEPROM_USER

  -------         MODULE        KEY
  C:0000H         SYMBOL        _ICE_DUMMY_
  D:0080H         PUBLIC        P0
  D:0090H         PUBLIC        P1
  D:00A0H         PUBLIC        P2
  D:00B0H         PUBLIC        P3
  D:00BDH         PUBLIC        P5M1
  D:00D8H         PUBLIC        P4
  D:0084H         PUBLIC        P6M1
  D:00BEH         PUBLIC        P5M2
  D:00B1H         PUBLIC        P5
  D:00A7H         PUBLIC        P6
  D:0085H         PUBLIC        P6M2
  C:71EFH         PUBLIC        Get_Light_Sta
  C:71B5H         PUBLIC        Set_Key_BLUCorlor_Disable
  C:71F5H         PUBLIC        Get_Bell_Sta
  D:00A8H         PUBLIC        IE
  C:7201H         PUBLIC        Get_Color_Sta
  C:3B45H         PUBLIC        KeyProcess
  D:00B8H         PUBLIC        IP
  C:71ADH         PUBLIC        Set_Key_BLUCorlor_Enable
  C:720DH         PUBLIC        Get_Wifi_Key_Sta
  D:0097H         PUBLIC        P5UP
  C:7207H         PUBLIC        Get_Co2DisMod
  D:0097H         PUBLIC        P6UP
  C:1EE8H         PUBLIC        Get_KeyValue
  C:71FBH         PUBLIC        Get_Unit_Sta
  X:06E4H         PUBLIC        KeyEvent
  D:0098H         PUBLIC        SCON
  D:0088H         PUBLIC        TCON
  D:0091H         PUBLIC        SFRS
  C:6D56H         PUBLIC        Init_KeyPort
  C:7213H         PUBLIC        Get_AccessNet_Request
  D:00C0H         PUBLIC        I2C0CON
  C:7219H         PUBLIC        Clr_AccessNet_Request
  D:00E8H         PUBLIC        I2C1CON
  D:00F8H         PUBLIC        S1CON
  D:00C8H         PUBLIC        T2CON
  D:00D0H         PUBLIC        PSW
  -------         PROC          INIT_KEYPORT
  C:6D56H         LINE#         33
  C:6D56H         LINE#         34
  C:6D56H         LINE#         35
  C:6D5FH         LINE#         36
  C:6D65H         LINE#         37
BL51 BANKED LINKER/LOCATER V6.22.2.0                                                  11/11/2022  18:17:38  PAGE 69


  C:6D6EH         LINE#         38
  C:6D74H         LINE#         39
  C:6D7AH         LINE#         40
  C:6D7CH         LINE#         41
  C:6D81H         LINE#         42
  -------         ENDPROC       INIT_KEYPORT
  -------         PROC          GET_KEYVALUE
  -------         DO            
  D:0005H         SYMBOL        KeyDataTemporary
  -------         ENDDO         
  C:1EE8H         LINE#         44
  C:1EE8H         LINE#         45
  C:1EE8H         LINE#         47
  C:1EEBH         LINE#         48
  C:1EF1H         LINE#         49
  C:1EFBH         LINE#         50
  C:1EFEH         LINE#         51
  C:1F00H         LINE#         52
  C:1F03H         LINE#         53
  C:1F0BH         LINE#         54
  C:1F0EH         LINE#         55
  C:1F11H         LINE#         56
  C:1F11H         LINE#         57
  C:1F17H         LINE#         58
  C:1F21H         LINE#         59
  C:1F21H         LINE#         60
  C:1F27H         LINE#         61
  C:1F27H         LINE#         62
  C:1F2FH         LINE#         63
  C:1F2FH         LINE#         64
  C:1F32H         LINE#         65
  C:1F34H         LINE#         67
  C:1F3AH         LINE#         68
  C:1F3FH         LINE#         69
  C:1F45H         LINE#         70
  C:1F4AH         LINE#         71
  C:1F4EH         LINE#         72
  C:1F50H         LINE#         74
  C:1F55H         LINE#         75
  C:1F55H         LINE#         76
  C:1F57H         LINE#         78
  C:1F5CH         LINE#         80
  C:1F67H         LINE#         81
  C:1F67H         LINE#         82
  C:1F6DH         LINE#         83
  C:1F7EH         LINE#         84
  C:1F7EH         LINE#         85
  C:1F7EH         LINE#         86
  C:1F88H         LINE#         87
  C:1F88H         LINE#         88
  C:1F95H         LINE#         89
  C:1F98H         LINE#         90
  C:1FA0H         LINE#         91
  C:1FA0H         LINE#         92
  C:1FA6H         LINE#         93
  C:1FB3H         LINE#         94
  C:1FB3H         LINE#         95
BL51 BANKED LINKER/LOCATER V6.22.2.0                                                  11/11/2022  18:17:38  PAGE 70


  C:1FBCH         LINE#         96
  C:1FC4H         LINE#         97
  C:1FCAH         LINE#         98
  C:1FCAH         LINE#         99
  C:1FD0H         LINE#         100
  C:1FD2H         LINE#         101
  C:1FD8H         LINE#         102
  C:1FD8H         LINE#         103
  C:1FDEH         LINE#         104
  C:1FDEH         LINE#         105
  C:1FE3H         LINE#         106
  C:1FE7H         LINE#         107
  C:1FEBH         LINE#         108
  C:1FEFH         LINE#         109
  C:1FF3H         LINE#         110
  C:1FF3H         LINE#         111
  C:1FF6H         LINE#         113
  C:1FF6H         LINE#         114
  C:2012H         LINE#         115
  C:2012H         LINE#         116
  C:2017H         LINE#         117
  C:201BH         LINE#         118
  C:2020H         LINE#         119
  C:2023H         LINE#         120
  C:203CH         LINE#         121
  C:203CH         LINE#         122
  C:2041H         LINE#         123
  C:2047H         LINE#         124
  C:204CH         LINE#         125
  C:2050H         LINE#         126
  C:2053H         LINE#         129
  C:2053H         LINE#         130
  C:2058H         LINE#         132
  C:205CH         LINE#         133
  C:2060H         LINE#         134
  C:2062H         LINE#         135
  C:2062H         LINE#         136
  C:2062H         LINE#         137
  C:2065H         LINE#         138
  C:206DH         LINE#         139
  C:206DH         LINE#         140
  C:207DH         LINE#         141
  C:207DH         LINE#         143
  C:2083H         LINE#         144
  C:2088H         LINE#         146
  C:208CH         LINE#         147
  C:2090H         LINE#         148
  C:2094H         LINE#         149
  C:2098H         LINE#         150
  C:209DH         LINE#         151
  C:209DH         LINE#         153
  C:209DH         LINE#         154
  C:20A0H         LINE#         155
  C:20A0H         LINE#         156
  C:20AAH         LINE#         157
  C:20AAH         LINE#         158
  C:20B7H         LINE#         159
BL51 BANKED LINKER/LOCATER V6.22.2.0                                                  11/11/2022  18:17:38  PAGE 71


  C:20BAH         LINE#         165
  C:20C2H         LINE#         166
  C:20C2H         LINE#         167
  C:20C8H         LINE#         168
  C:20D5H         LINE#         169
  C:20D5H         LINE#         170
  C:20DEH         LINE#         171
  C:20E6H         LINE#         172
  C:20ECH         LINE#         173
  C:20ECH         LINE#         174
  C:20F2H         LINE#         175
  C:20F4H         LINE#         176
  C:20FAH         LINE#         177
  C:20FAH         LINE#         178
  C:2100H         LINE#         179
  C:2100H         LINE#         180
  C:2105H         LINE#         181
  C:2109H         LINE#         182
  C:210DH         LINE#         183
  C:2111H         LINE#         184
  C:2115H         LINE#         185
  C:2115H         LINE#         186
  C:2118H         LINE#         188
  C:2118H         LINE#         189
  C:2134H         LINE#         190
  C:2134H         LINE#         191
  C:213AH         LINE#         192
  C:2140H         LINE#         193
  C:2145H         LINE#         194
  C:2147H         LINE#         195
  C:2160H         LINE#         196
  C:2160H         LINE#         197
  C:2166H         LINE#         198
  C:216CH         LINE#         199
  C:2171H         LINE#         200
  C:2175H         LINE#         201
  C:2177H         LINE#         204
  C:2177H         LINE#         206
  C:217CH         LINE#         208
  C:2180H         LINE#         209
  C:2184H         LINE#         210
  C:2186H         LINE#         211
  C:2186H         LINE#         212
  C:2186H         LINE#         213
  C:2188H         LINE#         214
  C:218DH         LINE#         215
  C:218DH         LINE#         216
  C:21A0H         LINE#         217
  C:21A0H         LINE#         218
  C:21A6H         LINE#         219
  C:21ABH         LINE#         221
  C:21AFH         LINE#         222
  C:21B3H         LINE#         223
  C:21B7H         LINE#         224
  C:21BBH         LINE#         225
  C:21C0H         LINE#         226
  C:21C0H         LINE#         228
BL51 BANKED LINKER/LOCATER V6.22.2.0                                                  11/11/2022  18:17:38  PAGE 72


  C:21C0H         LINE#         229
  C:21C0H         LINE#         230
  C:21C0H         LINE#         231
  C:21C0H         LINE#         232
  C:21C0H         LINE#         233
  C:21C0H         LINE#         234
  C:21C8H         LINE#         235
  C:21C8H         LINE#         236
  C:21CEH         LINE#         237
  C:21CEH         LINE#         238
  -------         ENDPROC       GET_KEYVALUE
  -------         PROC          KEYPROCESS
  C:3B45H         LINE#         240
  C:3B45H         LINE#         241
  C:3B45H         LINE#         242
  C:3B48H         LINE#         243
  C:3B51H         LINE#         244
  C:3B51H         LINE#         245
  C:3B58H         LINE#         246
  C:3B60H         LINE#         247
  C:3B60H         LINE#         248
  C:3B61H         LINE#         249
  C:3B66H         LINE#         251
  C:3B66H         LINE#         252
  C:3B66H         LINE#         253
  C:3B6CH         LINE#         254
  C:3B6CH         LINE#         255
  C:3B72H         LINE#         260
  C:3B75H         LINE#         261
  C:3B80H         LINE#         262
  C:3B80H         LINE#         263
  C:3B86H         LINE#         264
  C:3B8FH         LINE#         265
  C:3B8FH         LINE#         266
  C:3B91H         LINE#         267
  C:3B94H         LINE#         268
  C:3B9AH         LINE#         269
  C:3B9AH         LINE#         270
  C:3BA0H         LINE#         271
  C:3BA3H         LINE#         272
  C:3BACH         LINE#         273
  C:3BACH         LINE#         274
  C:3BB0H         LINE#         275
  C:3BB0H         LINE#         276
  C:3BB3H         LINE#         277
  C:3BB9H         LINE#         278
  C:3BB9H         LINE#         279
  C:3BBFH         LINE#         280
  C:3BC4H         LINE#         281
  C:3BC7H         LINE#         282
  C:3BD2H         LINE#         283
  C:3BD2H         LINE#         284
  C:3BD8H         LINE#         285
  C:3BE1H         LINE#         286
  C:3BE1H         LINE#         287
  C:3BE3H         LINE#         288
  C:3BE6H         LINE#         289
BL51 BANKED LINKER/LOCATER V6.22.2.0                                                  11/11/2022  18:17:38  PAGE 73


  C:3BEFH         LINE#         290
  C:3BEFH         LINE#         291
  C:3BF3H         LINE#         292
  C:3BF3H         LINE#         293
  C:3BF6H         LINE#         294
  C:3BFCH         LINE#         295
  C:3BFCH         LINE#         296
  C:3C02H         LINE#         297
  C:3C0BH         LINE#         298
  C:3C0BH         LINE#         299
  C:3C0DH         LINE#         300
  C:3C10H         LINE#         301
  C:3C19H         LINE#         302
  C:3C19H         LINE#         303
  C:3C1DH         LINE#         304
  C:3C1DH         LINE#         305
  C:3C20H         LINE#         307
  C:3C2BH         LINE#         308
  C:3C2BH         LINE#         309
  C:3C31H         LINE#         311
  C:3C31H         LINE#         312
  C:3C5CH         LINE#         313
  C:3C5CH         LINE#         314
  C:3C5CH         LINE#         315
  C:3C62H         LINE#         316
  C:3C64H         LINE#         317
  C:3C64H         LINE#         318
  C:3C6AH         LINE#         319
  C:3C6CH         LINE#         320
  C:3C6CH         LINE#         321
  C:3C72H         LINE#         322
  C:3C74H         LINE#         323
  C:3C74H         LINE#         324
  C:3C7AH         LINE#         325
  C:3C7CH         LINE#         326
  C:3C7CH         LINE#         327
  C:3C82H         LINE#         328
  C:3C84H         LINE#         329
  C:3C84H         LINE#         330
  C:3C8AH         LINE#         331
  C:3C8CH         LINE#         332
  C:3C8CH         LINE#         333
  C:3C92H         LINE#         334
  C:3C94H         LINE#         335
  C:3C94H         LINE#         336
  C:3C99H         LINE#         337
  C:3C9BH         LINE#         338
  C:3C9BH         LINE#         339
  C:3C9BH         LINE#         340
  C:3C9BH         LINE#         351
  C:3C9BH         LINE#         352
  C:3C9DH         LINE#         353
  C:3CA3H         LINE#         354
  C:3CA3H         LINE#         355
  C:3CA9H         LINE#         356
  C:3CABH         LINE#         357
  C:3CB3H         LINE#         358
BL51 BANKED LINKER/LOCATER V6.22.2.0                                                  11/11/2022  18:17:38  PAGE 74


  C:3CB3H         LINE#         359
  C:3CB9H         LINE#         360
  C:3CC2H         LINE#         361
  C:3CC2H         LINE#         362
  C:3CC4H         LINE#         363
  C:3CC6H         LINE#         364
  C:3CCCH         LINE#         365
  C:3CCCH         LINE#         366
  C:3CD0H         LINE#         367
  C:3CD0H         LINE#         368
  C:3CD0H         LINE#         370
  C:3CD5H         LINE#         371
  -------         ENDPROC       KEYPROCESS
  -------         PROC          GET_LIGHT_STA
  C:71EFH         LINE#         373
  C:71EFH         LINE#         374
  C:71EFH         LINE#         375
  C:71F4H         LINE#         376
  -------         ENDPROC       GET_LIGHT_STA
  -------         PROC          GET_BELL_STA
  C:71F5H         LINE#         378
  C:71F5H         LINE#         379
  C:71F5H         LINE#         380
  C:71FAH         LINE#         381
  -------         ENDPROC       GET_BELL_STA
  -------         PROC          GET_UNIT_STA
  C:71FBH         LINE#         383
  C:71FBH         LINE#         384
  C:71FBH         LINE#         385
  C:7200H         LINE#         386
  -------         ENDPROC       GET_UNIT_STA
  -------         PROC          GET_COLOR_STA
  C:7201H         LINE#         388
  C:7201H         LINE#         389
  C:7201H         LINE#         390
  C:7206H         LINE#         391
  -------         ENDPROC       GET_COLOR_STA
  -------         PROC          GET_CO2DISMOD
  C:7207H         LINE#         393
  C:7207H         LINE#         394
  C:7207H         LINE#         395
  C:720CH         LINE#         396
  -------         ENDPROC       GET_CO2DISMOD
  -------         PROC          GET_WIFI_KEY_STA
  C:720DH         LINE#         398
  C:720DH         LINE#         399
  C:720DH         LINE#         400
  C:7212H         LINE#         401
  -------         ENDPROC       GET_WIFI_KEY_STA
  -------         PROC          GET_ACCESSNET_REQUEST
  C:7213H         LINE#         403
  C:7213H         LINE#         404
  C:7213H         LINE#         405
  C:7218H         LINE#         406
  -------         ENDPROC       GET_ACCESSNET_REQUEST
  -------         PROC          CLR_ACCESSNET_REQUEST
  C:7219H         LINE#         408
BL51 BANKED LINKER/LOCATER V6.22.2.0                                                  11/11/2022  18:17:38  PAGE 75


  C:7219H         LINE#         409
  C:7219H         LINE#         410
  C:721EH         LINE#         411
  -------         ENDPROC       CLR_ACCESSNET_REQUEST
  -------         PROC          SET_KEY_BLUCORLOR_ENABLE
  C:71ADH         LINE#         413
  C:71ADH         LINE#         414
  C:71ADH         LINE#         415
  C:71B4H         LINE#         416
  -------         ENDPROC       SET_KEY_BLUCORLOR_ENABLE
  -------         PROC          SET_KEY_BLUCORLOR_DISABLE
  C:71B5H         LINE#         418
  C:71B5H         LINE#         419
  C:71B5H         LINE#         420
  C:71BCH         LINE#         421
  -------         ENDPROC       SET_KEY_BLUCORLOR_DISABLE
  -------         ENDMOD        KEY

  -------         MODULE        LCD_USER
  C:0000H         SYMBOL        _ICE_DUMMY_
  D:00FFH         PUBLIC        P1MF54
  D:0093H         PUBLIC        P6MF32
  D:0080H         PUBLIC        P0
  X:0766H         PUBLIC        disvlue
  D:00E9H         PUBLIC        P3MF54
  D:0090H         PUBLIC        P1
  D:00FCH         PUBLIC        P0MF76
  D:00EDH         PUBLIC        P4MF54
  D:00A0H         PUBLIC        P2
  D:00F1H         PUBLIC        P1MF76
  D:00B0H         PUBLIC        P3
  D:00F5H         PUBLIC        P2MF76
  D:0094H         PUBLIC        P6MF54
  D:00D8H         PUBLIC        P4
  D:00EEH         PUBLIC        P4MF76
  D:0095H         PUBLIC        P6MF76
  C:4C33H         PUBLIC        Init_Lcd
  D:00A8H         PUBLIC        IE
  C:118EH         PUBLIC        _TempHub_Display_On
  C:4872H         PUBLIC        _ShowDigit
  D:00B8H         PUBLIC        IP
  C:3E64H         PUBLIC        _LCD_Display_TempHub
  D:00FCH         PUBLIC        LCDDAT
  D:0098H         PUBLIC        SCON
  D:0088H         PUBLIC        TCON
  D:0091H         PUBLIC        SFRS
  D:00FBH         PUBLIC        LCDPTR
  C:721FH         PUBLIC        Lcd_Display
  D:00C0H         PUBLIC        I2C0CON
  D:00E8H         PUBLIC        I2C1CON
  D:00F8H         PUBLIC        S1CON
  D:00C8H         PUBLIC        T2CON
  C:380AH         PUBLIC        TempHub_Display_Off
  D:00F2H         PUBLIC        P2MF10
  D:00F6H         PUBLIC        P3MF10
  D:00EBH         PUBLIC        P4MF10
  D:00D0H         PUBLIC        PSW
BL51 BANKED LINKER/LOCATER V6.22.2.0                                                  11/11/2022  18:17:38  PAGE 76


  D:0092H         PUBLIC        P6MF10
  D:00F7H         PUBLIC        P3MF32
  -------         PROC          INIT_LCD
  C:4C33H         LINE#         4
  C:4C33H         LINE#         5
  C:4C33H         LINE#         9
  C:4C3CH         LINE#         10
  C:4C45H         LINE#         11
  C:4C4EH         LINE#         12
  C:4C57H         LINE#         16
  C:4C60H         LINE#         17
  C:4C69H         LINE#         18
  C:4C72H         LINE#         19
  C:4C7BH         LINE#         20
  C:4C84H         LINE#         22
  C:4C8DH         LINE#         23
  C:4C96H         LINE#         24
  C:4C9FH         LINE#         25
  C:4CA8H         LINE#         26
  C:4CB1H         LINE#         27
  C:4CBAH         LINE#         28
  C:4CC3H         LINE#         29
  C:4CCCH         LINE#         30
  C:4CD5H         LINE#         33
  C:4CDEH         LINE#         34
  C:4CE7H         LINE#         35
  C:4CF0H         LINE#         36
  C:4CF9H         LINE#         37
  C:4D02H         LINE#         38
  C:4D0BH         LINE#         39
  C:4D14H         LINE#         40
  C:4D1DH         LINE#         41
  C:4D26H         LINE#         42
  C:4D2FH         LINE#         44
  C:4D36H         LINE#         45
  C:4D48H         LINE#         46
  C:4D4FH         LINE#         48
  C:4D52H         LINE#         49
  C:4D57H         LINE#         51
  -------         ENDPROC       INIT_LCD
  -------         PROC          LCD_DISPLAY
  C:721FH         LINE#         53
  C:721FH         LINE#         54
  C:721FH         LINE#         55
  C:7224H         LINE#         57
  -------         ENDPROC       LCD_DISPLAY
  -------         PROC          _SHOWDIGIT
  D:0007H         SYMBOL        digitPlace
  D:0001H         SYMBOL        num
  X:071DH         SYMBOL        tempUnit
  -------         DO            
  D:0006H         SYMBOL        segABCD
  D:0005H         SYMBOL        segEFG
  -------         ENDDO         
  C:4872H         LINE#         59
  C:4879H         LINE#         60
  C:4879H         LINE#         62
BL51 BANKED LINKER/LOCATER V6.22.2.0                                                  11/11/2022  18:17:38  PAGE 77


  C:487BH         LINE#         64
  C:487CH         LINE#         78
  C:48B2H         LINE#         79
  C:48B2H         LINE#         80
  C:48B2H         LINE#         81
  C:48B4H         LINE#         82
  C:48B6H         LINE#         83
  C:48B8H         LINE#         85
  C:48B8H         LINE#         86
  C:48BAH         LINE#         87
  C:48BCH         LINE#         88
  C:48BEH         LINE#         90
  C:48BEH         LINE#         91
  C:48C0H         LINE#         92
  C:48C2H         LINE#         93
  C:48C4H         LINE#         95
  C:48C4H         LINE#         96
  C:48C6H         LINE#         97
  C:48C8H         LINE#         98
  C:48CAH         LINE#         99
  C:48CAH         LINE#         100
  C:48CCH         LINE#         101
  C:48CEH         LINE#         102
  C:48D0H         LINE#         103
  C:48D0H         LINE#         104
  C:48D2H         LINE#         105
  C:48D4H         LINE#         106
  C:48D6H         LINE#         107
  C:48D6H         LINE#         109
  C:48D8H         LINE#         110
  C:48DAH         LINE#         111
  C:48DCH         LINE#         112
  C:48DCH         LINE#         113
  C:48DEH         LINE#         114
  C:48E0H         LINE#         115
  C:48E2H         LINE#         117
  C:48E2H         LINE#         118
  C:48E4H         LINE#         119
  C:48E6H         LINE#         120
  C:48E8H         LINE#         121
  C:48E8H         LINE#         122
  C:48EAH         LINE#         123
  C:48ECH         LINE#         124
  C:48ECH         LINE#         125
  C:48EEH         LINE#         126
  C:48EEH         LINE#         127
  C:48EEH         LINE#         129
  C:48EEH         LINE#         130
  C:48EEH         LINE#         135
  C:48F1H         LINE#         136
  C:48F5H         LINE#         138
  C:4920H         LINE#         139
  C:4920H         LINE#         140
  C:4920H         LINE#         141
  C:4923H         LINE#         142
  C:4925H         LINE#         143
  C:4925H         LINE#         145
BL51 BANKED LINKER/LOCATER V6.22.2.0                                                  11/11/2022  18:17:38  PAGE 78


  C:4928H         LINE#         146
  C:492AH         LINE#         147
  C:492AH         LINE#         148
  C:492DH         LINE#         149
  C:492FH         LINE#         150
  C:492FH         LINE#         151
  C:4932H         LINE#         152
  C:4934H         LINE#         153
  C:4934H         LINE#         154
  C:4937H         LINE#         155
  C:4939H         LINE#         156
  C:4939H         LINE#         157
  C:493CH         LINE#         158
  C:493EH         LINE#         159
  C:493EH         LINE#         160
  C:4941H         LINE#         161
  C:4943H         LINE#         162
  C:4943H         LINE#         163
  C:4946H         LINE#         164
  C:4948H         LINE#         165
  C:4948H         LINE#         166
  C:494BH         LINE#         167
  C:494DH         LINE#         168
  C:494DH         LINE#         169
  C:4950H         LINE#         170
  C:4950H         LINE#         172
  C:4950H         LINE#         174
  C:4950H         LINE#         175
  C:4950H         LINE#         179
  C:4953H         LINE#         180
  C:4957H         LINE#         182
  C:4982H         LINE#         184
  C:4982H         LINE#         185
  C:4982H         LINE#         186
  C:4985H         LINE#         187
  C:4987H         LINE#         188
  C:4987H         LINE#         189
  C:498AH         LINE#         190
  C:498CH         LINE#         191
  C:498CH         LINE#         192
  C:498FH         LINE#         193
  C:4991H         LINE#         194
  C:4991H         LINE#         195
  C:4994H         LINE#         196
  C:4996H         LINE#         197
  C:4996H         LINE#         198
  C:4999H         LINE#         199
  C:499BH         LINE#         200
  C:499BH         LINE#         201
  C:499EH         LINE#         202
  C:49A0H         LINE#         203
  C:49A0H         LINE#         204
  C:49A3H         LINE#         205
  C:49A5H         LINE#         206
  C:49A5H         LINE#         207
  C:49A8H         LINE#         208
  C:49AAH         LINE#         209
BL51 BANKED LINKER/LOCATER V6.22.2.0                                                  11/11/2022  18:17:38  PAGE 79


  C:49AAH         LINE#         210
  C:49ADH         LINE#         211
  C:49AFH         LINE#         212
  C:49AFH         LINE#         213
  C:49B2H         LINE#         214
  C:49B2H         LINE#         215
  C:49B2H         LINE#         217
  C:49B2H         LINE#         218
  C:49B2H         LINE#         224
  C:49B9H         LINE#         226
  C:49B9H         LINE#         265
  C:49B9H         LINE#         266
  -------         ENDPROC       _SHOWDIGIT
  -------         PROC          TEMPHUB_DISPLAY_OFF
  C:380AH         LINE#         268
  C:380AH         LINE#         269
  C:380AH         LINE#         271
  C:3812H         LINE#         272
  C:381AH         LINE#         273
  C:3823H         LINE#         274
  C:382BH         LINE#         275
  C:3834H         LINE#         277
  C:383DH         LINE#         278
  C:3846H         LINE#         280
  C:384EH         LINE#         282
  C:3856H         LINE#         283
  C:385FH         LINE#         284
  C:3868H         LINE#         285
  C:3871H         LINE#         287
  C:3879H         LINE#         288
  C:3882H         LINE#         289
  C:388BH         LINE#         290
  C:3894H         LINE#         292
  C:389CH         LINE#         293
  C:38A5H         LINE#         294
  C:38AEH         LINE#         295
  C:38B7H         LINE#         297
  C:38BFH         LINE#         298
  C:38C8H         LINE#         299
  C:38D1H         LINE#         300
  C:38DAH         LINE#         302
  C:38E2H         LINE#         303
  C:38EBH         LINE#         304
  C:38F4H         LINE#         305
  C:38FDH         LINE#         307
  C:3905H         LINE#         308
  C:390EH         LINE#         309
  C:3917H         LINE#         310
  C:3920H         LINE#         312
  C:3928H         LINE#         313
  C:3931H         LINE#         314
  C:393AH         LINE#         315
  C:3943H         LINE#         317
  C:394BH         LINE#         318
  C:3954H         LINE#         319
  C:395DH         LINE#         320
  C:3966H         LINE#         322
BL51 BANKED LINKER/LOCATER V6.22.2.0                                                  11/11/2022  18:17:38  PAGE 80


  C:396EH         LINE#         323
  C:3977H         LINE#         324
  C:3980H         LINE#         325
  C:3989H         LINE#         327
  C:3991H         LINE#         328
  C:399AH         LINE#         329
  C:39A3H         LINE#         330
  C:39ACH         LINE#         331
  -------         ENDPROC       TEMPHUB_DISPLAY_OFF
  -------         PROC          _TEMPHUB_DISPLAY_ON
  X:0713H         SYMBOL        TValue
  X:0715H         SYMBOL        HValue
  -------         DO            
  D:0003H         SYMBOL        tgw
  D:0002H         SYMBOL        tsw
  X:0717H         SYMBOL        tbw
  X:0718H         SYMBOL        tqw
  X:0719H         SYMBOL        hgw
  X:071AH         SYMBOL        hsw
  X:071BH         SYMBOL        hbw
  X:071CH         SYMBOL        F_PositFlag
  -------         ENDDO         
  C:118EH         LINE#         333
  C:119CH         LINE#         334
  C:119CH         LINE#         336
  C:11A1H         LINE#         337
  C:11AAH         LINE#         338
  C:11AAH         LINE#         339
  C:11AAH         LINE#         340
  C:11B5H         LINE#         341
  C:11B5H         LINE#         343
  C:11BEH         LINE#         344
  C:11BEH         LINE#         345
  C:11E1H         LINE#         346
  C:11E1H         LINE#         347
  C:11E7H         LINE#         348
  C:1213H         LINE#         350
  C:1215H         LINE#         352
  C:1215H         LINE#         353
  C:121AH         LINE#         354
  C:124EH         LINE#         356
  C:124EH         LINE#         357
  C:1250H         LINE#         359
  C:1250H         LINE#         360
  C:1255H         LINE#         361
  C:1281H         LINE#         362
  C:1281H         LINE#         363
  C:1281H         LINE#         364
  C:1298H         LINE#         365
  C:12B5H         LINE#         366
  C:12D3H         LINE#         367
  C:12E4H         LINE#         369
  C:12F6H         LINE#         370
  C:1317H         LINE#         371
  C:132BH         LINE#         372
  C:1336H         LINE#         373
  C:133FH         LINE#         374
BL51 BANKED LINKER/LOCATER V6.22.2.0                                                  11/11/2022  18:17:38  PAGE 81


  C:1345H         LINE#         375
  C:1345H         LINE#         376
  C:134BH         LINE#         377
  C:134BH         LINE#         378
  C:135AH         LINE#         379
  C:135AH         LINE#         380
  C:1363H         LINE#         381
  C:136BH         LINE#         382
  C:136DH         LINE#         384
  C:136DH         LINE#         385
  C:1376H         LINE#         386
  C:137FH         LINE#         387
  C:137FH         LINE#         388
  C:137FH         LINE#         389
  C:1388H         LINE#         390
  C:1391H         LINE#         391
  C:139AH         LINE#         392
  C:13A3H         LINE#         393
  C:13A5H         LINE#         395
  C:13A5H         LINE#         396
  C:13ADH         LINE#         397
  C:13ADH         LINE#         398
  C:13BCH         LINE#         399
  C:13BCH         LINE#         400
  C:13C5H         LINE#         401
  C:13CDH         LINE#         402
  C:13CFH         LINE#         404
  C:13CFH         LINE#         405
  C:13D8H         LINE#         406
  C:13E1H         LINE#         407
  C:13E1H         LINE#         408
  C:13E1H         LINE#         409
  C:13EAH         LINE#         410
  C:13F3H         LINE#         411
  C:13FCH         LINE#         412
  C:1405H         LINE#         413
  C:1405H         LINE#         415
  C:1414H         LINE#         416
  C:1420H         LINE#         417
  C:142FH         LINE#         418
  C:142FH         LINE#         419
  C:1438H         LINE#         420
  C:1438H         LINE#         421
  C:1441H         LINE#         423
  C:144DH         LINE#         424
  C:1458H         LINE#         425
  C:1467H         LINE#         426
  C:1467H         LINE#         427
  C:146FH         LINE#         428
  C:146FH         LINE#         429
  C:1478H         LINE#         430
  C:14A8H         LINE#         431
  C:14A8H         LINE#         432
  C:14B1H         LINE#         433
  C:14B9H         LINE#         434
  C:14C1H         LINE#         435
  C:14CAH         LINE#         436
BL51 BANKED LINKER/LOCATER V6.22.2.0                                                  11/11/2022  18:17:38  PAGE 82


  C:14CAH         LINE#         437
  C:1520H         LINE#         438
  C:1520H         LINE#         439
  C:1528H         LINE#         440
  C:1530H         LINE#         441
  C:1539H         LINE#         442
  C:1542H         LINE#         443
  C:1542H         LINE#         444
  C:1571H         LINE#         445
  C:1571H         LINE#         446
  C:1579H         LINE#         447
  C:1582H         LINE#         448
  C:158AH         LINE#         449
  C:1593H         LINE#         450
  C:1593H         LINE#         451
  -------         ENDPROC       _TEMPHUB_DISPLAY_ON
  -------         PROC          _LCD_DISPLAY_TEMPHUB
  X:070FH         SYMBOL        TValue
  X:0711H         SYMBOL        HValue
  -------         DO            
  X:0764H         SYMBOL        test_time
  -------         ENDDO         
  C:3E64H         LINE#         453
  C:3E72H         LINE#         454
  C:3E72H         LINE#         459
  C:3E8BH         LINE#         460
  C:3E8BH         LINE#         461
  C:3E91H         LINE#         463
  C:3E91H         LINE#         466
  C:3E97H         LINE#         467
  C:3E97H         LINE#         468
  C:3EA5H         LINE#         469
  C:3EB4H         LINE#         470
  C:3EB4H         LINE#         471
  C:3EC5H         LINE#         472
  C:3EC7H         LINE#         473
  C:3ED6H         LINE#         474
  C:3ED6H         LINE#         475
  C:3ED9H         LINE#         476
  C:3EDBH         LINE#         478
  C:3EE2H         LINE#         479
  C:3EE4H         LINE#         480
  C:3EECH         LINE#         481
  C:3EECH         LINE#         482
  C:3EFDH         LINE#         483
  C:3EFDH         LINE#         511
  C:3F09H         LINE#         512
  C:3F09H         LINE#         513
  C:3F10H         LINE#         514
  C:3F12H         LINE#         515
  C:3F1EH         LINE#         516
  C:3F1EH         LINE#         518
  C:3F25H         LINE#         519
  C:3F27H         LINE#         520
  C:3F33H         LINE#         521
  C:3F33H         LINE#         523
  C:3F3AH         LINE#         524
BL51 BANKED LINKER/LOCATER V6.22.2.0                                                  11/11/2022  18:17:38  PAGE 83


  C:3F3CH         LINE#         525
  C:3F48H         LINE#         526
  C:3F48H         LINE#         528
  C:3F4FH         LINE#         530
  C:3F4FH         LINE#         531
  C:3F57H         LINE#         532
  C:3F5FH         LINE#         533
  C:3F67H         LINE#         534
  C:3F6FH         LINE#         536
  C:3F75H         LINE#         540
  C:3F7BH         LINE#         541
  C:3F7BH         LINE#         542
  C:3F82H         LINE#         543
  C:3F84H         LINE#         544
  C:3F8CH         LINE#         545
  C:3F8CH         LINE#         546
  C:3F94H         LINE#         547
  C:3F94H         LINE#         549
  C:3F9AH         LINE#         550
  C:3F9AH         LINE#         551
  C:3FA1H         LINE#         552
  C:3FA3H         LINE#         553
  C:3FABH         LINE#         554
  C:3FABH         LINE#         555
  C:3FB3H         LINE#         556
  C:3FB3H         LINE#         558
  C:3FBBH         LINE#         559
  C:3FC4H         LINE#         560
  C:3FCDH         LINE#         561
  C:3FD6H         LINE#         562
  C:3FDFH         LINE#         564
  C:3FE2H         LINE#         565
  -------         ENDPROC       _LCD_DISPLAY_TEMPHUB
  -------         ENDMOD        LCD_USER

  -------         MODULE        LED
  C:0000H         SYMBOL        _ICE_DUMMY_
  D:00B1H         PUBLIC        P0M1
  D:00B2H         PUBLIC        P0M2
  D:0080H         PUBLIC        P0
  D:0090H         PUBLIC        P1
  D:00C2H         PUBLIC        P3M1
  D:00A0H         PUBLIC        P2
  D:00C3H         PUBLIC        P3M2
  D:00B9H         PUBLIC        P4M1
  D:00B0H         PUBLIC        P3
  D:00BAH         PUBLIC        P4M2
  D:00D8H         PUBLIC        P4
  D:00EAH         PUBLIC        P3MF76
  D:00B1H         PUBLIC        P5
  D:00A8H         PUBLIC        IE
  X:072FH         PUBLIC        Low_Light
  X:0730H         PUBLIC        Is_InToSleep
  D:00B8H         PUBLIC        IP
  C:6E92H         PUBLIC        Buz_Off
  D:0098H         PUBLIC        SCON
  D:0088H         PUBLIC        TCON
BL51 BANKED LINKER/LOCATER V6.22.2.0                                                  11/11/2022  18:17:38  PAGE 84


  D:00C4H         PUBLIC        PWM2CON0
  C:66B6H         PUBLIC        RGB_Color_Off
  C:276BH         PUBLIC        _RGB_Color
  D:0091H         PUBLIC        SFRS
  C:527FH         PUBLIC        _LED_Low_Light
  C:6708H         PUBLIC        BLU_Color
  C:550DH         PUBLIC        LED_Init
  C:5C79H         PUBLIC        Buz_On
  D:00C0H         PUBLIC        I2C0CON
  D:00E8H         PUBLIC        I2C1CON
  D:00F8H         PUBLIC        S1CON
  D:00C8H         PUBLIC        T2CON
  C:4456H         PUBLIC        LED_Buz
  X:0731H         PUBLIC        BLU_10_SecondCount
  D:00D0H         PUBLIC        PSW
  D:00FBH         PUBLIC        P0MF54
  D:00ECH         PUBLIC        P4MF32
  -------         PROC          LED_INIT
  C:550DH         LINE#         10
  C:550DH         LINE#         11
  C:550DH         LINE#         15
  C:5516H         LINE#         18
  C:551DH         LINE#         19
  C:5526H         LINE#         20
  C:552FH         LINE#         21
  C:5540H         LINE#         22
  C:5546H         LINE#         23
  C:554DH         LINE#         25
  C:5556H         LINE#         26
  C:555FH         LINE#         27
  C:5579H         LINE#         29
  C:5582H         LINE#         30
  C:558BH         LINE#         31
  C:55A6H         LINE#         33
  C:55AFH         LINE#         34
  C:55B8H         LINE#         35
  C:55D3H         LINE#         40
  C:55D9H         LINE#         41
  C:55DCH         LINE#         42
  -------         ENDPROC       LED_INIT
  -------         PROC          BUZ_OFF
  C:6E92H         LINE#         44
  C:6E92H         LINE#         45
  C:6E92H         LINE#         46
  C:6E94H         LINE#         47
  C:6E9AH         LINE#         48
  C:6EABH         LINE#         49
  C:6EB1H         LINE#         50
  C:6EB3H         LINE#         52
  -------         ENDPROC       BUZ_OFF
  -------         PROC          BUZ_ON
  -------         DO            
  X:072AH         SYMBOL        BuzTime
  X:072CH         SYMBOL        i
  -------         ENDDO         
  C:5C79H         LINE#         54
  C:5C79H         LINE#         55
BL51 BANKED LINKER/LOCATER V6.22.2.0                                                  11/11/2022  18:17:38  PAGE 85


  C:5C79H         LINE#         57
  C:5C87H         LINE#         58
  C:5C96H         LINE#         59
  C:5C96H         LINE#         60
  C:5CA4H         LINE#         61
  C:5CA6H         LINE#         62
  C:5CC7H         LINE#         63
  C:5CCDH         LINE#         64
  C:5CD3H         LINE#         65
  C:5CD5H         LINE#         66
  C:5CD6H         LINE#         67
  C:5CE5H         LINE#         68
  C:5CE5H         LINE#         69
  C:5CECH         LINE#         70
  C:5CEFH         LINE#         71
  C:5CF0H         LINE#         73
  C:5CF0H         LINE#         74
  C:5CF7H         LINE#         75
  C:5CFDH         LINE#         76
  C:5CFDH         LINE#         77
  -------         ENDPROC       BUZ_ON
  -------         PROC          _LED_LOW_LIGHT
  X:0720H         SYMBOL        Level_light
  -------         DO            
  X:072EH         SYMBOL        LED_Times
  -------         ENDDO         
  C:527FH         LINE#         79
  C:5284H         LINE#         80
  C:5284H         LINE#         82
  C:528FH         LINE#         83
  C:528FH         LINE#         85
  C:529BH         LINE#         86
  C:529BH         LINE#         87
  C:52A1H         LINE#         88
  C:52A7H         LINE#         89
  C:52A7H         LINE#         90
  C:52AFH         LINE#         91
  C:52B0H         LINE#         92
  C:52BAH         LINE#         93
  C:52BAH         LINE#         95
  C:52C0H         LINE#         96
  C:52C1H         LINE#         98
  C:52C1H         LINE#         99
  C:52C6H         LINE#         100
  C:52C6H         LINE#         101
  C:52C7H         LINE#         102
  C:52D3H         LINE#         103
  C:52D3H         LINE#         104
  C:52D9H         LINE#         105
  C:52DFH         LINE#         106
  C:52DFH         LINE#         108
  C:52E7H         LINE#         109
  C:52E8H         LINE#         110
  C:52F2H         LINE#         111
  C:52F2H         LINE#         113
  C:52F8H         LINE#         114
  C:52F9H         LINE#         116
BL51 BANKED LINKER/LOCATER V6.22.2.0                                                  11/11/2022  18:17:38  PAGE 86


  C:52F9H         LINE#         117
  C:52FEH         LINE#         118
  C:52FEH         LINE#         119
  C:52FFH         LINE#         120
  C:530BH         LINE#         121
  C:530BH         LINE#         122
  C:5311H         LINE#         123
  C:5317H         LINE#         124
  C:5317H         LINE#         127
  C:531FH         LINE#         128
  C:5320H         LINE#         129
  C:532AH         LINE#         130
  C:532AH         LINE#         132
  C:5330H         LINE#         133
  C:5331H         LINE#         135
  C:5331H         LINE#         136
  C:5336H         LINE#         137
  C:5336H         LINE#         138
  C:5337H         LINE#         140
  C:5337H         LINE#         141
  C:533DH         LINE#         142
  C:5343H         LINE#         143
  C:5343H         LINE#         145
  C:534BH         LINE#         146
  C:534CH         LINE#         147
  C:5356H         LINE#         148
  C:5356H         LINE#         150
  C:535CH         LINE#         151
  C:535DH         LINE#         153
  C:535DH         LINE#         154
  C:5362H         LINE#         155
  C:5362H         LINE#         156
  C:5362H         LINE#         157
  C:5362H         LINE#         158
  -------         ENDPROC       _LED_LOW_LIGHT
  -------         PROC          LED_BUZ
  C:4456H         LINE#         160
  C:4456H         LINE#         161
  C:4456H         LINE#         162
  C:446DH         LINE#         163
  C:446DH         LINE#         164
  C:446DH         LINE#         165
  C:4472H         LINE#         166
  C:447AH         LINE#         167
  C:447AH         LINE#         168
  C:4486H         LINE#         169
  C:4486H         LINE#         170
  C:448FH         LINE#         171
  C:4491H         LINE#         172
  C:449DH         LINE#         173
  C:449DH         LINE#         174
  C:44A6H         LINE#         175
  C:44A8H         LINE#         176
  C:44B4H         LINE#         177
  C:44B4H         LINE#         178
  C:44BDH         LINE#         179
  C:44BFH         LINE#         181
BL51 BANKED LINKER/LOCATER V6.22.2.0                                                  11/11/2022  18:17:38  PAGE 87


  C:44BFH         LINE#         182
  C:44C8H         LINE#         183
  C:44C8H         LINE#         184
  C:44CAH         LINE#         185
  C:44D0H         LINE#         186
  C:44D0H         LINE#         187
  C:44D5H         LINE#         189
  C:44D5H         LINE#         191
  C:44E1H         LINE#         192
  C:44E1H         LINE#         193
  C:44E7H         LINE#         194
  C:44E7H         LINE#         195
  C:44EAH         LINE#         196
  C:44EBH         LINE#         197
  C:44F6H         LINE#         198
  C:44F6H         LINE#         199
  C:44F9H         LINE#         200
  C:44F9H         LINE#         201
  C:44FAH         LINE#         203
  C:44FAH         LINE#         204
  C:44FDH         LINE#         205
  C:44FDH         LINE#         206
  C:44FEH         LINE#         207
  C:44FEH         LINE#         209
  C:4506H         LINE#         210
  C:4506H         LINE#         211
  C:4515H         LINE#         212
  C:4515H         LINE#         213
  C:451BH         LINE#         214
  C:451DH         LINE#         216
  C:451DH         LINE#         217
  C:4522H         LINE#         218
  C:452EH         LINE#         219
  C:452EH         LINE#         220
  C:4537H         LINE#         221
  C:4539H         LINE#         222
  C:4545H         LINE#         223
  C:4545H         LINE#         224
  C:454EH         LINE#         225
  C:4550H         LINE#         226
  C:455CH         LINE#         227
  C:455CH         LINE#         228
  C:4565H         LINE#         229
  C:4567H         LINE#         231
  C:4567H         LINE#         232
  C:4570H         LINE#         233
  C:4570H         LINE#         234
  C:4570H         LINE#         235
  C:4572H         LINE#         236
  C:4578H         LINE#         237
  C:4578H         LINE#         238
  C:457CH         LINE#         239
  C:4581H         LINE#         241
  C:4581H         LINE#         243
  C:458DH         LINE#         244
  C:458DH         LINE#         245
  C:4593H         LINE#         246
BL51 BANKED LINKER/LOCATER V6.22.2.0                                                  11/11/2022  18:17:38  PAGE 88


  C:4593H         LINE#         247
  C:4596H         LINE#         248
  C:4597H         LINE#         249
  C:459FH         LINE#         250
  C:459FH         LINE#         251
  C:45A2H         LINE#         252
  C:45A2H         LINE#         253
  C:45A3H         LINE#         255
  C:45A3H         LINE#         256
  C:45A6H         LINE#         257
  C:45A6H         LINE#         259
  C:45A7H         LINE#         260
  C:45A7H         LINE#         261
  C:45ACH         LINE#         262
  C:45B1H         LINE#         263
  C:45B4H         LINE#         264
  C:45B5H         LINE#         265
  C:45B5H         LINE#         266
  C:45BAH         LINE#         267
  C:45BFH         LINE#         268
  C:45C2H         LINE#         269
  C:45C2H         LINE#         270
  C:45C2H         LINE#         271
  -------         ENDPROC       LED_BUZ
  -------         PROC          _RGB_COLOR
  X:070FH         SYMBOL        RGBColor
  C:276BH         LINE#         272
  C:2770H         LINE#         273
  C:2770H         LINE#         274
  C:2772H         LINE#         275
  C:2775H         LINE#         276
  C:27A0H         LINE#         277
  C:27A0H         LINE#         278
  C:27A0H         LINE#         279
  C:27BAH         LINE#         280
  C:27D5H         LINE#         281
  C:27F0H         LINE#         282
  C:27F3H         LINE#         283
  C:27F3H         LINE#         284
  C:280AH         LINE#         285
  C:2822H         LINE#         286
  C:283DH         LINE#         287
  C:2840H         LINE#         288
  C:2840H         LINE#         289
  C:285AH         LINE#         290
  C:2872H         LINE#         291
  C:288AH         LINE#         292
  C:288DH         LINE#         293
  C:288DH         LINE#         294
  C:28A4H         LINE#         295
  C:28BFH         LINE#         296
  C:28D7H         LINE#         297
  C:28DAH         LINE#         298
  C:28DAH         LINE#         299
  C:28F4H         LINE#         300
  C:290CH         LINE#         301
  C:2927H         LINE#         302
BL51 BANKED LINKER/LOCATER V6.22.2.0                                                  11/11/2022  18:17:38  PAGE 89


  C:292AH         LINE#         303
  C:292AH         LINE#         304
  C:2941H         LINE#         305
  C:295CH         LINE#         306
  C:2977H         LINE#         307
  C:297AH         LINE#         308
  C:297AH         LINE#         309
  C:2994H         LINE#         310
  C:29AFH         LINE#         311
  C:29CAH         LINE#         312
  C:29CCH         LINE#         313
  C:29CCH         LINE#         314
  C:29E6H         LINE#         315
  C:2A01H         LINE#         316
  C:2A19H         LINE#         317
  C:2A19H         LINE#         318
  C:2A19H         LINE#         319
  C:2A19H         LINE#         320
  C:2A19H         LINE#         321
  C:2A1CH         LINE#         322
  C:2A1EH         LINE#         323
  -------         ENDPROC       _RGB_COLOR
  -------         PROC          RGB_COLOR_OFF
  C:66B6H         LINE#         325
  C:66B6H         LINE#         326
  C:66B6H         LINE#         327
  C:66B8H         LINE#         328
  C:66BBH         LINE#         329
  C:66D2H         LINE#         330
  C:66EAH         LINE#         331
  C:6702H         LINE#         332
  C:6705H         LINE#         333
  C:6707H         LINE#         334
  -------         ENDPROC       RGB_COLOR_OFF
  -------         PROC          BLU_COLOR
  C:6708H         LINE#         336
  C:6708H         LINE#         337
  C:6708H         LINE#         338
  C:6716H         LINE#         339
  C:6716H         LINE#         340
  C:6716H         LINE#         341
  C:671CH         LINE#         342
  C:671DH         LINE#         343
  C:671DH         LINE#         344
  C:672BH         LINE#         345
  C:673AH         LINE#         346
  C:673AH         LINE#         347
  C:6741H         LINE#         348
  C:6747H         LINE#         349
  C:674AH         LINE#         350
  C:674BH         LINE#         352
  C:674BH         LINE#         353
  C:6751H         LINE#         354
  C:6751H         LINE#         355
  C:6752H         LINE#         356
  C:6752H         LINE#         357
  C:6755H         LINE#         358
BL51 BANKED LINKER/LOCATER V6.22.2.0                                                  11/11/2022  18:17:38  PAGE 90


  C:6756H         LINE#         359
  C:6756H         LINE#         360
  C:6759H         LINE#         361
  C:6759H         LINE#         362
  C:6759H         LINE#         363
  -------         ENDPROC       BLU_COLOR
  -------         ENDMOD        LED

  -------         MODULE        SHTC3
  C:0000H         SYMBOL        _ICE_DUMMY_
  D:00E1H         PUBLIC        P5MF32
  D:0080H         PUBLIC        P0
  C:71E8H         PUBLIC        Set_TempPositive
  D:0090H         PUBLIC        P1
  D:00A0H         PUBLIC        P2
  D:00B0H         PUBLIC        P3
  D:00BDH         PUBLIC        P5M1
  D:00D8H         PUBLIC        P4
  C:6E4BH         PUBLIC        Is_IIC_OverTime
  D:00BEH         PUBLIC        P5M2
  D:00A8H         PUBLIC        IE
  D:00B8H         PUBLIC        IP
  C:7192H         PUBLIC        Get_TempValue
  C:4E78H         PUBLIC        _I2C_Read
  C:719BH         PUBLIC        Get_HubValue
  C:00B2H         PUBLIC        I2C_Error
  C:5438H         PUBLIC        _I2C_Write
  D:00BDH         PUBLIC        I2C0STAT
  D:0098H         PUBLIC        SCON
  D:0088H         PUBLIC        TCON
  C:6502H         PUBLIC        Init_I2C
  D:0091H         PUBLIC        SFRS
  X:06FCH         PUBLIC        SHTC3_Data
  D:00BCH         PUBLIC        I2C0DAT
  D:00BEH         PUBLIC        I2C0CLK
  C:362CH         PUBLIC        Get_TempHut
  D:00C0H         PUBLIC        I2C0CON
  D:00E8H         PUBLIC        I2C1CON
  C:7225H         PUBLIC        Init_SHTC3
  C:5D82H         PUBLIC        _I2C_Read_Process
  D:00F8H         PUBLIC        S1CON
  D:00C8H         PUBLIC        T2CON
  C:6337H         PUBLIC        _I2C_Write_Process
  C:722BH         PUBLIC        Get_TempPositive
  D:00D0H         PUBLIC        PSW
  -------         PROC          INIT_SHTC3
  C:7225H         LINE#         29
  C:7225H         LINE#         30
  C:7225H         LINE#         31
  C:722AH         LINE#         32
  -------         ENDPROC       INIT_SHTC3
  -------         PROC          I2C_ERROR
  C:00B2H         LINE#         37
  C:00B2H         LINE#         38
  C:00B2H         LINE#         41
  -------         ENDPROC       I2C_ERROR
  -------         PROC          _I2C_WRITE
BL51 BANKED LINKER/LOCATER V6.22.2.0                                                  11/11/2022  18:17:38  PAGE 91


  D:0001H         SYMBOL        pbuf
  D:0005H         SYMBOL        len
  -------         DO            
  D:0007H         SYMBOL        u8Count
  -------         ENDDO         
  C:5438H         LINE#         48
  C:5438H         LINE#         49
  C:5438H         LINE#         53
  C:543BH         LINE#         54
  C:543EH         LINE#         55
  C:5443H         LINE#         56
  C:5443H         LINE#         57
  C:5449H         LINE#         58
  C:544FH         LINE#         59
  C:544FH         LINE#         60
  C:5453H         LINE#         61
  C:5455H         LINE#         62
  C:5459H         LINE#         64
  C:5459H         LINE#         65
  C:5459H         LINE#         66
  C:545EH         LINE#         67
  C:5460H         LINE#         68
  C:5467H         LINE#         69
  C:546AH         LINE#         72
  C:546DH         LINE#         73
  C:5470H         LINE#         74
  C:5473H         LINE#         76
  C:5478H         LINE#         77
  C:5478H         LINE#         78
  C:547EH         LINE#         79
  C:5484H         LINE#         80
  C:5484H         LINE#         81
  C:5488H         LINE#         82
  C:548AH         LINE#         83
  C:548EH         LINE#         85
  C:548EH         LINE#         86
  C:548EH         LINE#         87
  C:5493H         LINE#         88
  C:5495H         LINE#         89
  C:549CH         LINE#         90
  C:549FH         LINE#         93
  C:54A6H         LINE#         94
  C:54A6H         LINE#         96
  C:54ABH         LINE#         97
  C:54B2H         LINE#         98
  C:54B5H         LINE#         100
  C:54BAH         LINE#         101
  C:54BAH         LINE#         102
  C:54C0H         LINE#         103
  C:54C6H         LINE#         104
  C:54C6H         LINE#         105
  C:54CAH         LINE#         106
  C:54CCH         LINE#         107
  C:54D0H         LINE#         109
  C:54D0H         LINE#         110
  C:54D0H         LINE#         111
  C:54D5H         LINE#         112
BL51 BANKED LINKER/LOCATER V6.22.2.0                                                  11/11/2022  18:17:38  PAGE 92


  C:54D7H         LINE#         113
  C:54DEH         LINE#         114
  C:54E1H         LINE#         115
  C:54E4H         LINE#         118
  C:54E7H         LINE#         119
  C:54EAH         LINE#         121
  C:54EFH         LINE#         122
  C:54EFH         LINE#         123
  C:54F5H         LINE#         124
  C:54FBH         LINE#         125
  C:54FBH         LINE#         126
  C:54FFH         LINE#         127
  C:5501H         LINE#         128
  C:5505H         LINE#         130
  C:5505H         LINE#         131
  C:5505H         LINE#         132
  C:550AH         LINE#         133
  C:550CH         LINE#         135
  -------         ENDPROC       _I2C_WRITE
  -------         PROC          _I2C_READ
  D:0001H         SYMBOL        pbuf
  D:0004H         SYMBOL        len
  -------         DO            
  X:070FH         SYMBOL        u8Count
  -------         ENDDO         
  C:4E78H         LINE#         137
  C:4E78H         LINE#         138
  C:4E78H         LINE#         141
  C:4E7BH         LINE#         142
  C:4E7EH         LINE#         144
  C:4E83H         LINE#         145
  C:4E83H         LINE#         146
  C:4E89H         LINE#         147
  C:4E8FH         LINE#         148
  C:4E8FH         LINE#         149
  C:4E93H         LINE#         150
  C:4E95H         LINE#         151
  C:4E99H         LINE#         153
  C:4E99H         LINE#         154
  C:4E99H         LINE#         155
  C:4E9EH         LINE#         156
  C:4EA0H         LINE#         157
  C:4EA7H         LINE#         158
  C:4EAAH         LINE#         161
  C:4EADH         LINE#         162
  C:4EB0H         LINE#         163
  C:4EB3H         LINE#         165
  C:4EB8H         LINE#         166
  C:4EB8H         LINE#         167
  C:4EBEH         LINE#         168
  C:4EC4H         LINE#         169
  C:4EC4H         LINE#         170
  C:4EC8H         LINE#         171
  C:4ECAH         LINE#         172
  C:4ECEH         LINE#         174
  C:4ECEH         LINE#         175
  C:4ECEH         LINE#         176
BL51 BANKED LINKER/LOCATER V6.22.2.0                                                  11/11/2022  18:17:38  PAGE 93


  C:4ED3H         LINE#         177
  C:4ED5H         LINE#         178
  C:4EDCH         LINE#         179
  C:4EDFH         LINE#         182
  C:4EF3H         LINE#         183
  C:4EF3H         LINE#         184
  C:4EF6H         LINE#         185
  C:4EF9H         LINE#         187
  C:4EFEH         LINE#         188
  C:4EFEH         LINE#         189
  C:4F04H         LINE#         190
  C:4F0AH         LINE#         191
  C:4F0AH         LINE#         192
  C:4F0EH         LINE#         193
  C:4F10H         LINE#         194
  C:4F14H         LINE#         196
  C:4F14H         LINE#         197
  C:4F14H         LINE#         198
  C:4F19H         LINE#         199
  C:4F1BH         LINE#         200
  C:4F22H         LINE#         201
  C:4F25H         LINE#         205
  C:4F2AH         LINE#         206
  C:4F31H         LINE#         207
  C:4F39H         LINE#         210
  C:4F3CH         LINE#         211
  C:4F3FH         LINE#         213
  C:4F44H         LINE#         214
  C:4F44H         LINE#         215
  C:4F4AH         LINE#         216
  C:4F50H         LINE#         217
  C:4F50H         LINE#         218
  C:4F54H         LINE#         219
  C:4F56H         LINE#         220
  C:4F5AH         LINE#         222
  C:4F5AH         LINE#         223
  C:4F5AH         LINE#         224
  C:4F5FH         LINE#         225
  C:4F61H         LINE#         226
  C:4F68H         LINE#         227
  C:4F6BH         LINE#         230
  C:4F6EH         LINE#         231
  C:4F71H         LINE#         233
  C:4F76H         LINE#         234
  C:4F76H         LINE#         235
  C:4F7CH         LINE#         236
  C:4F82H         LINE#         237
  C:4F82H         LINE#         238
  C:4F86H         LINE#         239
  C:4F88H         LINE#         240
  C:4F8CH         LINE#         242
  C:4F8CH         LINE#         243
  C:4F8CH         LINE#         244
  C:4F91H         LINE#         245
  C:4F93H         LINE#         246
  -------         ENDPROC       _I2C_READ
  -------         PROC          INIT_I2C
BL51 BANKED LINKER/LOCATER V6.22.2.0                                                  11/11/2022  18:17:38  PAGE 94


  C:6502H         LINE#         248
  C:6502H         LINE#         249
  C:6502H         LINE#         250
  C:650BH         LINE#         251
  C:6514H         LINE#         252
  C:651DH         LINE#         253
  C:6526H         LINE#         255
  C:6529H         LINE#         257
  C:652CH         LINE#         260
  C:652FH         LINE#         262
  C:6535H         LINE#         263
  C:6539H         LINE#         264
  C:6544H         LINE#         265
  C:6549H         LINE#         266
  C:654FH         LINE#         267
  C:6553H         LINE#         268
  C:655AH         LINE#         269
  -------         ENDPROC       INIT_I2C
  -------         PROC          GET_TEMPHUT
  -------         DO            
  X:06FAH         SYMBOL        DelayTime
  -------         ENDDO         
  C:362CH         LINE#         272
  C:362CH         LINE#         273
  C:362CH         LINE#         287
  C:3633H         LINE#         288
  C:3633H         LINE#         289
  C:3639H         LINE#         290
  C:363DH         LINE#         291
  C:3648H         LINE#         292
  C:364EH         LINE#         293
  C:364FH         LINE#         294
  C:3654H         LINE#         295
  C:3654H         LINE#         296
  C:365AH         LINE#         297
  C:365EH         LINE#         298
  C:3669H         LINE#         299
  C:366FH         LINE#         300
  C:3670H         LINE#         301
  C:367BH         LINE#         302
  C:367BH         LINE#         304
  C:3681H         LINE#         305
  C:368EH         LINE#         306
  C:368EH         LINE#         307
  C:3690H         LINE#         308
  C:3696H         LINE#         309
  C:3696H         LINE#         310
  C:3697H         LINE#         311
  C:36A0H         LINE#         312
  C:36A0H         LINE#         313
  C:36ACH         LINE#         314
  C:36B2H         LINE#         315
  C:36C0H         LINE#         316
  C:36D2H         LINE#         317
  C:36FFH         LINE#         318
  C:36FFH         LINE#         319
  C:370CH         LINE#         320
BL51 BANKED LINKER/LOCATER V6.22.2.0                                                  11/11/2022  18:17:38  PAGE 95


  C:3715H         LINE#         321
  C:3727H         LINE#         324
  C:3750H         LINE#         326
  C:3758H         LINE#         327
  C:3758H         LINE#         328
  C:3763H         LINE#         329
  C:3769H         LINE#         330
  C:376BH         LINE#         332
  C:376BH         LINE#         333
  C:377FH         LINE#         334
  C:3784H         LINE#         335
  C:3784H         LINE#         337
  C:3793H         LINE#         339
  C:37A0H         LINE#         340
  C:37A9H         LINE#         341
  C:37BBH         LINE#         342
  C:37E3H         LINE#         343
  C:37E3H         LINE#         346
  C:37E4H         LINE#         347
  C:37ECH         LINE#         348
  C:37ECH         LINE#         349
  C:37F2H         LINE#         350
  C:37F6H         LINE#         351
  C:3801H         LINE#         352
  C:3806H         LINE#         353
  C:3809H         LINE#         354
  C:3809H         LINE#         357
  -------         ENDPROC       GET_TEMPHUT
  -------         PROC          _I2C_WRITE_PROCESS
  D:0007H         SYMBOL        u8DAT
  -------         DO            
  D:0006H         SYMBOL        u8Count
  -------         ENDDO         
  C:6337H         LINE#         358
  C:6337H         LINE#         359
  C:6337H         LINE#         362
  C:633AH         LINE#         363
  C:633DH         LINE#         364
  C:6342H         LINE#         365
  C:6349H         LINE#         366
  C:634CH         LINE#         369
  C:634FH         LINE#         370
  C:6352H         LINE#         371
  C:6355H         LINE#         372
  C:635AH         LINE#         373
  C:6361H         LINE#         374
  C:6364H         LINE#         377
  C:6370H         LINE#         378
  C:6370H         LINE#         379
  C:6372H         LINE#         380
  C:6375H         LINE#         381
  C:637AH         LINE#         382
  C:6381H         LINE#         383
  C:6384H         LINE#         385
  C:6387H         LINE#         386
  C:638AH         LINE#         389
  C:638DH         LINE#         390
BL51 BANKED LINKER/LOCATER V6.22.2.0                                                  11/11/2022  18:17:38  PAGE 96


  C:6390H         LINE#         391
  C:6395H         LINE#         392
  -------         ENDPROC       _I2C_WRITE_PROCESS
  -------         PROC          _I2C_READ_PROCESS
  D:0007H         SYMBOL        u8DAT
  -------         DO            
  D:0006H         SYMBOL        u8Count
  -------         ENDDO         
  C:5D82H         LINE#         397
  C:5D82H         LINE#         398
  C:5D82H         LINE#         401
  C:5D85H         LINE#         402
  C:5D88H         LINE#         403
  C:5D8DH         LINE#         404
  C:5D94H         LINE#         405
  C:5D97H         LINE#         408
  C:5D9AH         LINE#         409
  C:5D9DH         LINE#         410
  C:5DA0H         LINE#         411
  C:5DA5H         LINE#         412
  C:5DACH         LINE#         413
  C:5DAFH         LINE#         416
  C:5DBBH         LINE#         417
  C:5DBBH         LINE#         418
  C:5DBEH         LINE#         419
  C:5DC1H         LINE#         420
  C:5DC6H         LINE#         422
  C:5DCDH         LINE#         423
  C:5DD0H         LINE#         425
  C:5DD5H         LINE#         426
  C:5DD8H         LINE#         427
  C:5DDBH         LINE#         428
  C:5DDEH         LINE#         431
  C:5DE1H         LINE#         432
  C:5DE4H         LINE#         433
  C:5DE9H         LINE#         434
  C:5DF0H         LINE#         435
  C:5DF3H         LINE#         438
  C:5DF6H         LINE#         439
  C:5DF9H         LINE#         440
  C:5DFEH         LINE#         441
  -------         ENDPROC       _I2C_READ_PROCESS
  -------         PROC          GET_TEMPVALUE
  C:7192H         LINE#         444
  C:7192H         LINE#         445
  C:7192H         LINE#         446
  C:719AH         LINE#         447
  -------         ENDPROC       GET_TEMPVALUE
  -------         PROC          GET_HUBVALUE
  C:719BH         LINE#         449
  C:719BH         LINE#         450
  C:719BH         LINE#         451
  C:71A3H         LINE#         452
  -------         ENDPROC       GET_HUBVALUE
  -------         PROC          IS_IIC_OVERTIME
  -------         DO            
  X:06FBH         SYMBOL        countT
BL51 BANKED LINKER/LOCATER V6.22.2.0                                                  11/11/2022  18:17:38  PAGE 97


  -------         ENDDO         
  C:6E4BH         LINE#         454
  C:6E4BH         LINE#         455
  C:6E4BH         LINE#         457
  C:6E53H         LINE#         458
  C:6E53H         LINE#         459
  C:6E59H         LINE#         460
  C:6E63H         LINE#         461
  C:6E63H         LINE#         462
  C:6E69H         LINE#         463
  C:6E6EH         LINE#         464
  C:6E6EH         LINE#         466
  C:6E6EH         LINE#         468
  -------         ENDPROC       IS_IIC_OVERTIME
  -------         PROC          GET_TEMPPOSITIVE
  C:722BH         LINE#         470
  C:722BH         LINE#         471
  C:722BH         LINE#         472
  C:7230H         LINE#         473
  -------         ENDPROC       GET_TEMPPOSITIVE
  -------         PROC          SET_TEMPPOSITIVE
  C:71E8H         LINE#         475
  C:71E8H         LINE#         476
  C:71E8H         LINE#         477
  C:71EEH         LINE#         478
  -------         ENDPROC       SET_TEMPPOSITIVE
  -------         ENDMOD        SHTC3

  -------         MODULE        TIMER0
  C:0000H         SYMBOL        _ICE_DUMMY_
  D:0080H         PUBLIC        P0
  D:0090H         PUBLIC        P1
  D:00A0H         PUBLIC        P2
  D:00B0H         PUBLIC        P3
  C:3429H         PUBLIC        Timer0_ISR
  D:00D8H         PUBLIC        P4
  C:7255H         PUBLIC        GET_TempHub_Sta
  B:00A8H.7       PUBLIC        EA
  C:7243H         PUBLIC        Get_OneCircleSaveFlag
  D:00A8H         PUBLIC        IE
  C:723DH         PUBLIC        Get_SaveAddr
  D:00B8H         PUBLIC        IP
  C:71A4H         PUBLIC        GET_NtcTEMP
  C:6FA9H         PUBLIC        Timer0_Init
  D:0098H         PUBLIC        SCON
  D:0089H         PUBLIC        TMOD
  D:0088H         PUBLIC        TCON
  C:7237H         PUBLIC        Clr__TempHutStartFlag
  D:0091H         PUBLIC        SFRS
  B:0088H.5       PUBLIC        TF0
  D:008CH         PUBLIC        TH0
  C:724FH         PUBLIC        _Set_Save_AddrP
  D:00C0H         PUBLIC        I2C0CON
  D:008AH         PUBLIC        TL0
  D:00E8H         PUBLIC        I2C1CON
  C:4AF8H         PUBLIC        Time_Process
  X:06B9H         PUBLIC        Sys_TimePar
BL51 BANKED LINKER/LOCATER V6.22.2.0                                                  11/11/2022  18:17:38  PAGE 98


  C:7231H         PUBLIC        Get_TempHutStartFlag
  C:7249H         PUBLIC        _Set_OneCircle_Flag
  D:00F8H         PUBLIC        S1CON
  D:00C8H         PUBLIC        T2CON
  D:008EH         PUBLIC        CKCON
  D:00D0H         PUBLIC        PSW
  -------         PROC          TIMER0_INIT
  C:6FA9H         LINE#         56
  C:6FA9H         LINE#         57
  C:6FA9H         LINE#         58
  C:6FAFH         LINE#         59
  C:6FB4H         LINE#         60
  C:6FB6H         LINE#         61
  C:6FB9H         LINE#         62
  C:6FBCH         LINE#         63
  C:6FBFH         LINE#         64
  C:6FC1H         LINE#         65
  C:6FC4H         LINE#         66
  -------         ENDPROC       TIMER0_INIT
  -------         PROC          TIMER0_ISR
  C:3429H         LINE#         68
  C:3446H         LINE#         70
  C:3448H         LINE#         71
  C:344BH         LINE#         72
  C:344EH         LINE#         73
  C:3451H         LINE#         74
  C:3453H         LINE#         75
  C:3459H         LINE#         76
  C:345DH         LINE#         77
  C:346BH         LINE#         78
  C:3479H         LINE#         79
  C:3487H         LINE#         80
  C:3495H         LINE#         81
  C:34A3H         LINE#         82
  C:34B1H         LINE#         83
  C:34BFH         LINE#         84
  C:34CDH         LINE#         85
  C:34DBH         LINE#         86
  C:34E0H         LINE#         87
  C:34EDH         LINE#         88
  C:34EDH         LINE#         89
  C:34F0H         LINE#         90
  C:34F6H         LINE#         91
  C:34FBH         LINE#         92
  C:34FBH         LINE#         93
  C:3508H         LINE#         94
  C:3508H         LINE#         95
  C:350EH         LINE#         96
  C:3513H         LINE#         97
  C:3513H         LINE#         98
  C:3522H         LINE#         99
  C:3522H         LINE#         100
  C:3528H         LINE#         101
  C:352FH         LINE#         102
  C:352FH         LINE#         103
  C:353EH         LINE#         104
  C:353EH         LINE#         105
BL51 BANKED LINKER/LOCATER V6.22.2.0                                                  11/11/2022  18:17:38  PAGE 99


  C:3544H         LINE#         106
  C:354BH         LINE#         107
  C:354BH         LINE#         108
  C:355AH         LINE#         109
  C:355AH         LINE#         110
  C:3560H         LINE#         111
  C:3567H         LINE#         112
  C:3567H         LINE#         113
  C:3576H         LINE#         114
  C:3576H         LINE#         115
  C:357CH         LINE#         116
  C:3583H         LINE#         117
  C:3583H         LINE#         118
  C:3592H         LINE#         119
  C:3592H         LINE#         120
  C:3598H         LINE#         121
  C:359FH         LINE#         122
  C:359FH         LINE#         123
  C:35AEH         LINE#         124
  C:35AEH         LINE#         125
  C:35B4H         LINE#         126
  C:35BBH         LINE#         127
  C:35BBH         LINE#         128
  C:35CAH         LINE#         129
  C:35CAH         LINE#         130
  C:35D0H         LINE#         131
  C:35D7H         LINE#         132
  C:35D7H         LINE#         133
  C:35E6H         LINE#         134
  C:35E6H         LINE#         135
  C:35ECH         LINE#         136
  C:35F3H         LINE#         137
  C:35F3H         LINE#         138
  C:3602H         LINE#         139
  C:3602H         LINE#         140
  C:3608H         LINE#         141
  C:360FH         LINE#         142
  C:360FH         LINE#         144
  C:3611H         LINE#         145
  -------         ENDPROC       TIMER0_ISR
  -------         PROC          TIME_PROCESS
  -------         DO            
  X:06B7H         SYMBOL        times
  X:06B8H         SYMBOL        stable_count
  -------         ENDDO         
  C:4AF8H         LINE#         147
  C:4AF8H         LINE#         148
  C:4AF8H         LINE#         149
  C:4B00H         LINE#         150
  C:4B00H         LINE#         152
  C:4B08H         LINE#         153
  C:4B08H         LINE#         154
  C:4B0BH         LINE#         156
  C:4B0BH         LINE#         159
  C:4B0EH         LINE#         160
  C:4B13H         LINE#         161
  C:4B14H         LINE#         162
BL51 BANKED LINKER/LOCATER V6.22.2.0                                                  11/11/2022  18:17:38  PAGE 100


  C:4B1CH         LINE#         163
  C:4B1CH         LINE#         166
  C:4B1FH         LINE#         167
  C:4B22H         LINE#         168
  C:4B25H         LINE#         170
  C:4B2AH         LINE#         171
  C:4B2BH         LINE#         172
  C:4B33H         LINE#         173
  C:4B33H         LINE#         175
  C:4B36H         LINE#         176
  C:4B3BH         LINE#         177
  C:4B40H         LINE#         179
  C:4B48H         LINE#         180
  C:4B48H         LINE#         181
  C:4B4EH         LINE#         182
  C:4B4EH         LINE#         183
  C:4B53H         LINE#         184
  C:4B58H         LINE#         185
  C:4B58H         LINE#         186
  C:4B5FH         LINE#         187
  C:4B62H         LINE#         188
  C:4B65H         LINE#         189
  C:4B6CH         LINE#         190
  C:4B76H         LINE#         191
  C:4B76H         LINE#         192
  C:4B7CH         LINE#         193
  C:4B80H         LINE#         194
  C:4B85H         LINE#         195
  C:4B85H         LINE#         196
  C:4B8AH         LINE#         197
  C:4B8AH         LINE#         199
  C:4B8FH         LINE#         200
  C:4B90H         LINE#         202
  C:4B98H         LINE#         203
  C:4B98H         LINE#         205
  C:4BADH         LINE#         206
  C:4BB2H         LINE#         207
  C:4BB3H         LINE#         209
  C:4BBBH         LINE#         210
  C:4BBBH         LINE#         214
  C:4BC6H         LINE#         215
  C:4BCCH         LINE#         218
  C:4BD0H         LINE#         219
  C:4BDAH         LINE#         220
  C:4BDAH         LINE#         221
  C:4BDEH         LINE#         222
  C:4BE4H         LINE#         223
  C:4BE9H         LINE#         224
  C:4BEEH         LINE#         225
  C:4BEEH         LINE#         226
  C:4BFBH         LINE#         227
  C:4BFBH         LINE#         228
  C:4BFDH         LINE#         229
  C:4C00H         LINE#         230
  C:4C00H         LINE#         231
  C:4C0DH         LINE#         232
  C:4C0DH         LINE#         233
BL51 BANKED LINKER/LOCATER V6.22.2.0                                                  11/11/2022  18:17:38  PAGE 101


  C:4C13H         LINE#         234
  C:4C19H         LINE#         235
  C:4C1BH         LINE#         237
  C:4C20H         LINE#         238
  C:4C23H         LINE#         241
  C:4C28H         LINE#         242
  C:4C29H         LINE#         243
  C:4C31H         LINE#         244
  C:4C31H         LINE#         246
  C:4C32H         LINE#         247
  C:4C32H         LINE#         248
  -------         ENDPROC       TIME_PROCESS
  -------         PROC          GET_TEMPHUTSTARTFLAG
  C:7231H         LINE#         250
  C:7231H         LINE#         251
  C:7231H         LINE#         252
  C:7236H         LINE#         253
  -------         ENDPROC       GET_TEMPHUTSTARTFLAG
  -------         PROC          CLR__TEMPHUTSTARTFLAG
  C:7237H         LINE#         255
  C:7237H         LINE#         256
  C:7237H         LINE#         257
  C:723CH         LINE#         258
  -------         ENDPROC       CLR__TEMPHUTSTARTFLAG
  -------         PROC          GET_SAVEADDR
  C:723DH         LINE#         260
  C:723DH         LINE#         261
  C:723DH         LINE#         262
  C:7242H         LINE#         263
  -------         ENDPROC       GET_SAVEADDR
  -------         PROC          GET_ONECIRCLESAVEFLAG
  C:7243H         LINE#         265
  C:7243H         LINE#         266
  C:7243H         LINE#         267
  C:7248H         LINE#         268
  -------         ENDPROC       GET_ONECIRCLESAVEFLAG
  -------         PROC          _SET_ONECIRCLE_FLAG
  D:0007H         SYMBOL        Flag
  C:7249H         LINE#         270
  C:7249H         LINE#         271
  C:7249H         LINE#         272
  C:724EH         LINE#         273
  -------         ENDPROC       _SET_ONECIRCLE_FLAG
  -------         PROC          _SET_SAVE_ADDRP
  D:0007H         SYMBOL        Addr
  C:724FH         LINE#         275
  C:724FH         LINE#         276
  C:724FH         LINE#         277
  C:7254H         LINE#         278
  -------         ENDPROC       _SET_SAVE_ADDRP
  -------         PROC          GET_NTCTEMP
  C:71A4H         LINE#         280
  C:71A4H         LINE#         281
  C:71A4H         LINE#         282
  C:71ACH         LINE#         283
  -------         ENDPROC       GET_NTCTEMP
  -------         PROC          GET_TEMPHUB_STA
BL51 BANKED LINKER/LOCATER V6.22.2.0                                                  11/11/2022  18:17:38  PAGE 102


  C:7255H         LINE#         285
  C:7255H         LINE#         286
  C:7255H         LINE#         287
  C:725AH         LINE#         288
  -------         ENDPROC       GET_TEMPHUB_STA
  -------         ENDMOD        TIMER0

  -------         MODULE        UART1_USER
  C:0000H         SYMBOL        _ICE_DUMMY_
  D:0080H         PUBLIC        P0
  D:00B5H         PUBLIC        P2M1
  D:0090H         PUBLIC        P1
  D:00B6H         PUBLIC        P2M2
  D:00A0H         PUBLIC        P2
  D:00B0H         PUBLIC        P3
  D:00D8H         PUBLIC        P4
  D:009CH         PUBLIC        EIE1
  B:00A8H.7       PUBLIC        EA
  D:00A8H         PUBLIC        IE
  D:00B8H         PUBLIC        IP
  C:69F8H         PUBLIC        _Uart1senddata
  D:0098H         PUBLIC        SCON
  D:0088H         PUBLIC        TCON
  D:0091H         PUBLIC        SFRS
  D:00C0H         PUBLIC        I2C0CON
  D:00E8H         PUBLIC        I2C1CON
  D:00F8H         PUBLIC        S1CON
  C:692EH         PUBLIC        Init_UART1
  D:00C8H         PUBLIC        T2CON
  D:00D0H         PUBLIC        PSW
  D:00F3H         PUBLIC        P2MF32
  -------         PROC          INIT_UART1
  C:692EH         LINE#         4
  C:692EH         LINE#         5
  C:692EH         LINE#         6
  C:6937H         LINE#         7
  C:6940H         LINE#         8
  C:6949H         LINE#         9
  C:6952H         LINE#         11
  C:696BH         LINE#         12
  C:6971H         LINE#         13
  C:6973H         LINE#         14
  -------         ENDPROC       INIT_UART1
  -------         PROC          _UART1SENDDATA
  X:070FH         SYMBOL        Data
  X:0712H         SYMBOL        len
  -------         DO            
  X:0713H         SYMBOL        i
  -------         ENDDO         
  C:69F8H         LINE#         17
  C:6A06H         LINE#         18
  C:6A06H         LINE#         20
  C:6A15H         LINE#         21
  C:6A15H         LINE#         22
  C:6A2EH         LINE#         24
  C:6A36H         LINE#         25
  -------         ENDPROC       _UART1SENDDATA
BL51 BANKED LINKER/LOCATER V6.22.2.0                                                  11/11/2022  18:17:38  PAGE 103


  -------         ENDMOD        UART1_USER

  -------         MODULE        UART2_USER
  C:0000H         SYMBOL        _ICE_DUMMY_
  D:00B1H         PUBLIC        P0M1
  D:00B2H         PUBLIC        P0M2
  D:0080H         PUBLIC        P0
  D:0090H         PUBLIC        P1
  D:00A0H         PUBLIC        P2
  D:00B0H         PUBLIC        P3
  D:00D8H         PUBLIC        P4
  B:00A8H.7       PUBLIC        EA
  D:00A8H         PUBLIC        IE
  D:00B8H         PUBLIC        IP
  C:6A37H         PUBLIC        _Uart0senddata
  D:0098H         PUBLIC        SCON
  D:0088H         PUBLIC        TCON
  D:0091H         PUBLIC        SFRS
  D:00C0H         PUBLIC        I2C0CON
  D:00E8H         PUBLIC        I2C1CON
  C:6974H         PUBLIC        Init_UART0
  D:00F8H         PUBLIC        S1CON
  D:00C8H         PUBLIC        T2CON
  D:00F9H         PUBLIC        P0MF10
  D:00D0H         PUBLIC        PSW
  -------         PROC          INIT_UART0
  C:6974H         LINE#         3
  C:6974H         LINE#         4
  C:6974H         LINE#         5
  C:697DH         LINE#         6
  C:6986H         LINE#         7
  C:698FH         LINE#         8
  C:6998H         LINE#         9
  C:69B1H         LINE#         11
  C:69B4H         LINE#         12
  C:69B6H         LINE#         14
  -------         ENDPROC       INIT_UART0
  -------         PROC          _UART0SENDDATA
  X:0756H         SYMBOL        Data
  X:0759H         SYMBOL        len
  -------         DO            
  X:075AH         SYMBOL        i
  -------         ENDDO         
  C:6A37H         LINE#         16
  C:6A45H         LINE#         17
  C:6A45H         LINE#         19
  C:6A54H         LINE#         20
  C:6A54H         LINE#         21
  C:6A6DH         LINE#         23
  C:6A75H         LINE#         24
  -------         ENDPROC       _UART0SENDDATA
  -------         ENDMOD        UART2_USER

  -------         MODULE        UART3_USER
  C:0000H         SYMBOL        _ICE_DUMMY_
  D:00B3H         PUBLIC        P1M1
  D:0080H         PUBLIC        P0
BL51 BANKED LINKER/LOCATER V6.22.2.0                                                  11/11/2022  18:17:38  PAGE 104


  D:00B4H         PUBLIC        P1M2
  D:0090H         PUBLIC        P1
  D:00A0H         PUBLIC        P2
  D:00B0H         PUBLIC        P3
  D:00D8H         PUBLIC        P4
  D:00A8H         PUBLIC        IE
  D:00B8H         PUBLIC        IP
  D:0098H         PUBLIC        SCON
  D:0088H         PUBLIC        TCON
  D:0091H         PUBLIC        SFRS
  D:00C0H         PUBLIC        I2C0CON
  D:00E8H         PUBLIC        I2C1CON
  D:00F8H         PUBLIC        S1CON
  D:00C8H         PUBLIC        T2CON
  C:6AF0H         PUBLIC        Init_UART3
  D:00FDH         PUBLIC        P1MF10
  D:00FEH         PUBLIC        P1MF32
  D:00D0H         PUBLIC        PSW
  C:7120H         PUBLIC        _putchar
  -------         PROC          INIT_UART3
  C:6AF0H         LINE#         3
  C:6AF0H         LINE#         4
  C:6AF0H         LINE#         5
  C:6AF9H         LINE#         6
  C:6B02H         LINE#         7
  C:6B0BH         LINE#         8
  C:6B14H         LINE#         9
  C:6B29H         LINE#         15
  -------         ENDPROC       INIT_UART3
  -------         PROC          _PUTCHAR
  X:076EH         SYMBOL        c
  C:7120H         LINE#         18
  C:7125H         LINE#         19
  C:7125H         LINE#         21
  C:7128H         LINE#         23
  C:712DH         LINE#         24
  -------         ENDPROC       _PUTCHAR
  -------         ENDMOD        UART3_USER

  -------         MODULE        WDT
  C:0000H         SYMBOL        _ICE_DUMMY_
  D:0080H         PUBLIC        P0
  D:0090H         PUBLIC        P1
  D:00A0H         PUBLIC        P2
  D:00B0H         PUBLIC        P3
  D:00D8H         PUBLIC        P4
  B:00A8H.7       PUBLIC        EA
  D:00A8H         PUBLIC        IE
  D:00C7H         PUBLIC        TA
  D:00B8H         PUBLIC        IP
  D:0098H         PUBLIC        SCON
  D:0088H         PUBLIC        TCON
  D:0091H         PUBLIC        SFRS
  D:00C0H         PUBLIC        I2C0CON
  D:00E8H         PUBLIC        I2C1CON
  D:00F8H         PUBLIC        S1CON
  C:6B9BH         PUBLIC        FEED_WDT
BL51 BANKED LINKER/LOCATER V6.22.2.0                                                  11/11/2022  18:17:38  PAGE 105


  C:6A76H         PUBLIC        WDT_Init
  D:00C8H         PUBLIC        T2CON
  D:00D0H         PUBLIC        PSW
  D:00AAH         PUBLIC        WDCON
  -------         PROC          WDT_INIT
  C:6A76H         LINE#         2
  C:6A76H         LINE#         3
  C:6A76H         LINE#         4
  C:6A7FH         LINE#         10
  C:6A95H         LINE#         11
  C:6AAAH         LINE#         12
  C:6AB3H         LINE#         13
  -------         ENDPROC       WDT_INIT
  -------         PROC          FEED_WDT
  C:6B9BH         LINE#         15
  C:6B9BH         LINE#         16
  C:6B9BH         LINE#         17
  C:6BB1H         LINE#         18
  C:6BC6H         LINE#         19
  C:6BCFH         LINE#         20
  -------         ENDPROC       FEED_WDT
  -------         ENDMOD        WDT

  -------         MODULE        WIFI
  C:0000H         SYMBOL        _ICE_DUMMY_
  D:0080H         PUBLIC        P0
  D:0090H         PUBLIC        P1
  D:00A0H         PUBLIC        P2
  D:00B0H         PUBLIC        P3
  D:00D8H         PUBLIC        P4
  C:7154H         PUBLIC        Init_Wifi
  D:00A8H         PUBLIC        IE
  D:00B8H         PUBLIC        IP
  B:0098H.0       PUBLIC        RI
  B:0098H.1       PUBLIC        TI
  X:053BH         PUBLIC        WIFIData
  D:0099H         PUBLIC        SBUF
  B:0090H.3       PUBLIC        P13
  D:0098H         PUBLIC        SCON
  D:0088H         PUBLIC        TCON
  C:6F15H         PUBLIC        UART0_ISR
  D:0091H         PUBLIC        SFRS
  D:00C0H         PUBLIC        I2C0CON
  D:00E8H         PUBLIC        I2C1CON
  D:00F8H         PUBLIC        S1CON
  D:00C8H         PUBLIC        T2CON
  C:45C3H         PUBLIC        _Send_NetworkEntry
  D:00D0H         PUBLIC        PSW
  -------         PROC          INIT_WIFI
  C:7154H         LINE#         55
  C:7154H         LINE#         56
  C:7154H         LINE#         57
  C:715DH         LINE#         58
  C:715FH         LINE#         59
  -------         ENDPROC       INIT_WIFI
  -------         PROC          _SEND_NETWORKENTRY
  D:0007H         SYMBOL        SendType
BL51 BANKED LINKER/LOCATER V6.22.2.0                                                  11/11/2022  18:17:38  PAGE 106


  -------         DO            
  D:0006H         SYMBOL        i
  -------         ENDDO         
  C:45C3H         LINE#         67
  C:45C3H         LINE#         68
  C:45C3H         LINE#         69
  C:45C5H         LINE#         70
  C:45CBH         LINE#         71
  C:45CBH         LINE#         72
  C:45CBH         LINE#         73
  C:45D5H         LINE#         74
  C:45DBH         LINE#         75
  C:45DFH         LINE#         76
  C:45E2H         LINE#         77
  C:45E6H         LINE#         78
  C:45EEH         LINE#         79
  C:45F4H         LINE#         80
  C:45F8H         LINE#         81
  C:45FCH         LINE#         82
  C:4602H         LINE#         83
  C:4606H         LINE#         84
  C:460CH         LINE#         85
  C:4614H         LINE#         86
  C:461AH         LINE#         87
  C:461EH         LINE#         88
  C:4626H         LINE#         89
  C:462EH         LINE#         90
  C:4636H         LINE#         91
  C:463EH         LINE#         92
  C:4646H         LINE#         93
  C:464FH         LINE#         94
  C:4667H         LINE#         95
  C:467FH         LINE#         96
  C:4697H         LINE#         97
  C:46A5H         LINE#         98
  C:46ADH         LINE#         99
  C:46B5H         LINE#         100
  C:46BDH         LINE#         101
  C:46C5H         LINE#         102
  C:46CDH         LINE#         103
  C:46D5H         LINE#         104
  C:46DEH         LINE#         105
  C:46E6H         LINE#         106
  C:46EFH         LINE#         107
  C:46FBH         LINE#         108
  C:46FBH         LINE#         109
  C:470DH         LINE#         110
  C:4710H         LINE#         111
  C:4720H         LINE#         112
  C:4726H         LINE#         113
  C:4726H         LINE#         115
  C:4726H         LINE#         116
  C:4726H         LINE#         117
  C:4726H         LINE#         118
  C:4726H         LINE#         119
  C:4726H         LINE#         120
  C:4726H         LINE#         121
BL51 BANKED LINKER/LOCATER V6.22.2.0                                                  11/11/2022  18:17:38  PAGE 107


  C:4726H         LINE#         122
  C:4726H         LINE#         123
  C:4726H         LINE#         125
  -------         ENDPROC       _SEND_NETWORKENTRY
  -------         PROC          UART0_ISR
  C:6F15H         LINE#         135
  C:6F1BH         LINE#         137
  C:6F1DH         LINE#         138
  C:6F20H         LINE#         139
  C:6F20H         LINE#         140
  C:6F22H         LINE#         141
  C:6F28H         LINE#         142
  C:6F2BH         LINE#         144
  C:6F2BH         LINE#         145
  C:6F2BH         LINE#         146
  C:6F2BH         LINE#         149
  C:6F2BH         LINE#         150
  C:6F2DH         LINE#         151
  -------         ENDPROC       UART0_ISR
  -------         ENDMOD        WIFI

  -------         MODULE        CRC16
  C:0000H         SYMBOL        _ICE_DUMMY_
  D:0080H         PUBLIC        P0
  D:0090H         PUBLIC        P1
  D:00A0H         PUBLIC        P2
  D:00B0H         PUBLIC        P3
  D:00D8H         PUBLIC        P4
  D:00A8H         PUBLIC        IE
  C:675AH         PUBLIC        _CRC16MODBUS
  D:00B8H         PUBLIC        IP
  D:0098H         PUBLIC        SCON
  D:0088H         PUBLIC        TCON
  X:0000H         PUBLIC        aucCRCHi
  X:0100H         PUBLIC        aucCRCLo
  D:00C0H         PUBLIC        I2C0CON
  D:00E8H         PUBLIC        I2C1CON
  D:00F8H         PUBLIC        S1CON
  D:00C8H         PUBLIC        T2CON
  D:00D0H         PUBLIC        PSW
  -------         PROC          _CRC16MODBUS
  X:0714H         SYMBOL        pucFrame
  X:0717H         SYMBOL        usLen
  -------         DO            
  D:0007H         SYMBOL        ucCRCHi
  D:0005H         SYMBOL        ucCRCLo
  D:0002H         SYMBOL        iIndex
  -------         ENDDO         
  C:675AH         LINE#         48
  C:6768H         LINE#         49
  C:6768H         LINE#         50
  C:676AH         LINE#         51
  C:676CH         LINE#         53
  C:6776H         LINE#         54
  C:6776H         LINE#         55
  C:678DH         LINE#         56
  C:6799H         LINE#         57
BL51 BANKED LINKER/LOCATER V6.22.2.0                                                  11/11/2022  18:17:38  PAGE 108


  C:67A5H         LINE#         58
  C:67A7H         LINE#         59
  C:67ABH         LINE#         60
  -------         ENDPROC       _CRC16MODBUS
  -------         ENDMOD        CRC16

  -------         MODULE        BC3602
  C:0000H         SYMBOL        _ICE_DUMMY_
  D:0080H         PUBLIC        P0
  D:0090H         PUBLIC        P1
  D:00A0H         PUBLIC        P2
  C:725BH         PUBLIC        Get_RF_Mode
  D:00B0H         PUBLIC        P3
  D:00D8H         PUBLIC        P4
  B:00A8H.7       PUBLIC        EA
  C:71BDH         PUBLIC        _SpiWriteStrobeCMD
  D:00A8H         PUBLIC        IE
  C:655BH         PUBLIC        BC3602_RF_Process
  C:2CC2H         PUBLIC        RF_Init
  D:00B8H         PUBLIC        IP
  C:5DFFH         PUBLIC        _KEY_BC3602
  C:7261H         PUBLIC        ReSet_RFstep
  C:7160H         PUBLIC        _SpiReadRegCMD
  C:684CH         PUBLIC        _ReadFIFO
  X:05C0H         PUBLIC        mRFSync
  B:0090H.0       PUBLIC        P10
  C:0026H         PUBLIC        _SpiWriteRegCMD
  C:67FDH         PUBLIC        _WriteFIFO
  B:0090H.3       PUBLIC        P13
  D:0098H         PUBLIC        SCON
  D:0088H         PUBLIC        TCON
  D:0091H         PUBLIC        SFRS
  C:68E6H         PUBLIC        _RFWriteBuf
  X:05C4H         PUBLIC        RF_RXFIFO
  X:05E4H         PUBLIC        RF_TXFIFO
  C:6C9FH         PUBLIC        PinInterrupt_ISR
  C:705AH         PUBLIC        _Set_RFmode
  D:00C0H         PUBLIC        I2C0CON
  D:00E8H         PUBLIC        I2C1CON
  C:6FFAH         PUBLIC        _DATA_Process
  D:00CAH         PUBLIC        PIF
  C:50A7H         PUBLIC        _SimpleFIFO_RX_Process
  C:569EH         PUBLIC        _SimpleFIFO_TX_Process
  D:00F8H         PUBLIC        S1CON
  X:0604H         PUBLIC        RF_IRQ
  D:00C8H         PUBLIC        T2CON
  X:0605H         PUBLIC        Mflag
  C:6BD0H         PUBLIC        RF_Finished_Process
  C:644EH         PUBLIC        BC3602_InterfaceConfigure
  D:00FEH         PUBLIC        P1MF32
  D:00D0H         PUBLIC        PSW
  X:060AH         PUBLIC        RF_RXFIFOSAVE
  -------         PROC          _SPIWRITEREGCMD
  D:0007H         SYMBOL        CMD
  X:0718H         SYMBOL        DATA
  C:0026H         LINE#         36
  C:002BH         LINE#         37
BL51 BANKED LINKER/LOCATER V6.22.2.0                                                  11/11/2022  18:17:38  PAGE 109


  C:002BH         LINE#         39
  C:002DH         LINE#         40
  C:0030H         LINE#         41
  C:0038H         LINE#         43
  C:003AH         LINE#         44
  -------         ENDPROC       _SPIWRITEREGCMD
  -------         PROC          _SPIREADREGCMD
  D:0007H         SYMBOL        CMD
  -------         DO            
  D:0007H         SYMBOL        ReadDATA
  -------         ENDDO         
  C:7160H         LINE#         51
  C:7160H         LINE#         52
  C:7160H         LINE#         55
  C:7162H         LINE#         56
  C:7165H         LINE#         57
  C:7168H         LINE#         59
  C:716AH         LINE#         60
  C:716AH         LINE#         61
  -------         ENDPROC       _SPIREADREGCMD
  -------         PROC          _SPIWRITESTROBECMD
  D:0007H         SYMBOL        CMD
  C:71BDH         LINE#         68
  C:71BDH         LINE#         69
  C:71BDH         LINE#         71
  C:71BFH         LINE#         72
  C:71C2H         LINE#         74
  C:71C4H         LINE#         75
  -------         ENDPROC       _SPIWRITESTROBECMD
  -------         PROC          BC3602_INTERFACECONFIGURE
  C:644EH         LINE#         183
  C:644EH         LINE#         184
  C:644EH         LINE#         192
  C:6451H         LINE#         196
  C:6453H         LINE#         198
  C:6459H         LINE#         199
  C:6462H         LINE#         200
  C:646BH         LINE#         201
  C:647DH         LINE#         204
  C:647FH         LINE#         206
  C:6485H         LINE#         209
  C:648CH         LINE#         210
  C:6493H         LINE#         211
  C:649AH         LINE#         214
  C:649DH         LINE#         217
  C:64A0H         LINE#         220
  C:64A5H         LINE#         222
  C:64A8H         LINE#         223
  -------         ENDPROC       BC3602_INTERFACECONFIGURE
  -------         PROC          RF_INIT
  C:2CC2H         LINE#         225
  C:2CC2H         LINE#         226
  C:2CC2H         LINE#         228
  C:2CC5H         LINE#         229
  C:2CC8H         LINE#         230
  C:2CCDH         LINE#         231
  C:2CD4H         LINE#         232
BL51 BANKED LINKER/LOCATER V6.22.2.0                                                  11/11/2022  18:17:38  PAGE 110


  C:2CDBH         LINE#         235
  C:2CE2H         LINE#         236
  C:2CE9H         LINE#         237
  C:2CF0H         LINE#         239
  C:2CF7H         LINE#         240
  C:2CFEH         LINE#         241
  C:2D05H         LINE#         242
  C:2D0CH         LINE#         243
  C:2D13H         LINE#         244
  C:2D1AH         LINE#         245
  C:2D21H         LINE#         246
  C:2D28H         LINE#         247
  C:2D2FH         LINE#         248
  C:2D36H         LINE#         249
  C:2D3DH         LINE#         250
  C:2D44H         LINE#         251
  C:2D4BH         LINE#         252
  C:2D52H         LINE#         253
  C:2D59H         LINE#         254
  C:2D60H         LINE#         255
  C:2D67H         LINE#         256
  C:2D6EH         LINE#         257
  C:2D75H         LINE#         258
  C:2D7CH         LINE#         259
  C:2D83H         LINE#         260
  C:2D8AH         LINE#         261
  C:2D91H         LINE#         262
  C:2D98H         LINE#         263
  C:2D9FH         LINE#         264
  C:2DA6H         LINE#         265
  C:2DADH         LINE#         266
  C:2DB4H         LINE#         267
  C:2DBBH         LINE#         268
  C:2DC2H         LINE#         269
  C:2DC9H         LINE#         270
  C:2DD0H         LINE#         271
  C:2DD7H         LINE#         275
  C:2DDEH         LINE#         276
  C:2DE5H         LINE#         278
  C:2DECH         LINE#         279
  C:2DF3H         LINE#         281
  C:2DFAH         LINE#         284
  C:2E01H         LINE#         285
  C:2E08H         LINE#         286
  C:2E0FH         LINE#         302
  C:2E16H         LINE#         303
  C:2E1DH         LINE#         307
  C:2E24H         LINE#         308
  C:2E2BH         LINE#         309
  C:2E32H         LINE#         310
  C:2E39H         LINE#         312
  C:2E3EH         LINE#         313
  C:2E45H         LINE#         314
  C:2E4CH         LINE#         315
  C:2E53H         LINE#         316
  C:2E5AH         LINE#         317
  C:2E61H         LINE#         320
BL51 BANKED LINKER/LOCATER V6.22.2.0                                                  11/11/2022  18:17:38  PAGE 111


  C:2E68H         LINE#         321
  C:2E6FH         LINE#         322
  C:2E76H         LINE#         323
  C:2E7DH         LINE#         324
  C:2E84H         LINE#         325
  C:2E8BH         LINE#         326
  C:2E92H         LINE#         327
  C:2E99H         LINE#         328
  C:2EA0H         LINE#         329
  C:2EA7H         LINE#         330
  C:2EAEH         LINE#         331
  C:2EB5H         LINE#         332
  C:2EBCH         LINE#         333
  C:2EC3H         LINE#         334
  C:2ECAH         LINE#         335
  C:2ED1H         LINE#         336
  C:2ED8H         LINE#         338
  C:2EDFH         LINE#         339
  C:2EE6H         LINE#         341
  C:2EEBH         LINE#         342
  C:2EF2H         LINE#         343
  C:2EF9H         LINE#         344
  C:2F00H         LINE#         345
  C:2F07H         LINE#         346
  C:2F0EH         LINE#         347
  C:2F15H         LINE#         348
  C:2F1CH         LINE#         349
  C:2F23H         LINE#         350
  C:2F2AH         LINE#         351
  C:2F31H         LINE#         352
  C:2F38H         LINE#         356
  C:2F3EH         LINE#         357
  -------         ENDPROC       RF_INIT
  -------         PROC          _RFWRITEBUF
  D:0007H         SYMBOL        CMD
  X:075BH         SYMBOL        length
  X:075CH         SYMBOL        Data
  -------         DO            
  X:075FH         SYMBOL        a
  -------         ENDDO         
  C:68E6H         LINE#         412
  C:68F4H         LINE#         413
  C:68F4H         LINE#         416
  C:68F6H         LINE#         417
  C:68F9H         LINE#         418
  C:692BH         LINE#         420
  C:692DH         LINE#         421
  -------         ENDPROC       _RFWRITEBUF
  -------         PROC          _DATA_PROCESS
  D:0001H         SYMBOL        FIFO
  C:6FFAH         LINE#         484
  C:6FFAH         LINE#         485
  C:6FFAH         LINE#         486
  C:7001H         LINE#         487
  C:7006H         LINE#         491
  C:700DH         LINE#         492
  C:7012H         LINE#         493
BL51 BANKED LINKER/LOCATER V6.22.2.0                                                  11/11/2022  18:17:38  PAGE 112


  -------         ENDPROC       _DATA_PROCESS
  -------         PROC          _KEY_BC3602
  D:0007H         SYMBOL        key_status
  C:5DFFH         LINE#         500
  C:5DFFH         LINE#         501
  C:5DFFH         LINE#         502
  C:5E0EH         LINE#         503
  C:5E0EH         LINE#         504
  C:5E0EH         LINE#         505
  C:5E14H         LINE#         506
  C:5E1CH         LINE#         507
  C:5E21H         LINE#         508
  C:5E27H         LINE#         509
  C:5E28H         LINE#         511
  C:5E28H         LINE#         512
  C:5E2EH         LINE#         513
  C:5E37H         LINE#         514
  C:5E3CH         LINE#         515
  C:5E42H         LINE#         516
  C:5E43H         LINE#         518
  C:5E43H         LINE#         519
  C:5E49H         LINE#         520
  C:5E52H         LINE#         521
  C:5E57H         LINE#         522
  C:5E5DH         LINE#         523
  C:5E5EH         LINE#         525
  C:5E5EH         LINE#         526
  C:5E64H         LINE#         527
  C:5E6DH         LINE#         528
  C:5E72H         LINE#         529
  C:5E78H         LINE#         530
  C:5E78H         LINE#         532
  C:5E78H         LINE#         533
  C:5E78H         LINE#         534
  C:5E78H         LINE#         535
  -------         ENDPROC       _KEY_BC3602
  -------         PROC          PININTERRUPT_ISR
  C:6C9FH         LINE#         537
  C:6CACH         LINE#         539
  C:6CAEH         LINE#         541
  C:6CB1H         LINE#         542
  C:6CB7H         LINE#         543
  C:6CB7H         LINE#         544
  C:6CB7H         LINE#         545
  C:6CBEH         LINE#         546
  C:6CBEH         LINE#         547
  C:6CBEH         LINE#         548
  C:6CBEH         LINE#         549
  C:6CBEH         LINE#         550
  C:6CC1H         LINE#         552
  C:6CC3H         LINE#         553
  -------         ENDPROC       PININTERRUPT_ISR
  -------         PROC          GET_RF_MODE
  C:725BH         LINE#         555
  C:725BH         LINE#         556
  C:725BH         LINE#         557
  C:7260H         LINE#         558
BL51 BANKED LINKER/LOCATER V6.22.2.0                                                  11/11/2022  18:17:38  PAGE 113


  -------         ENDPROC       GET_RF_MODE
  -------         PROC          _WRITEFIFO
  X:0718H         SYMBOL        rf_fifo
  X:071BH         SYMBOL        payload_length
  -------         DO            
  X:071CH         SYMBOL        a
  -------         ENDDO         
  C:67FDH         LINE#         567
  C:680BH         LINE#         568
  C:680BH         LINE#         569
  C:680EH         LINE#         570
  C:6810H         LINE#         571
  C:6815H         LINE#         572
  C:6825H         LINE#         573
  C:6825H         LINE#         574
  C:6837H         LINE#         575
  C:6841H         LINE#         576
  C:6849H         LINE#         577
  C:684BH         LINE#         578
  -------         ENDPROC       _WRITEFIFO
  -------         PROC          _READFIFO
  X:0718H         SYMBOL        rf_fifo
  X:071BH         SYMBOL        length
  -------         DO            
  X:071CH         SYMBOL        a
  -------         ENDDO         
  C:684CH         LINE#         585
  C:685AH         LINE#         586
  C:685AH         LINE#         587
  C:685DH         LINE#         588
  C:685FH         LINE#         589
  C:6864H         LINE#         590
  C:6874H         LINE#         591
  C:6874H         LINE#         592
  C:6886H         LINE#         593
  C:6890H         LINE#         594
  C:6898H         LINE#         595
  C:689AH         LINE#         596
  -------         ENDPROC       _READFIFO
  -------         PROC          _SIMPLEFIFO_TX_PROCESS
  X:070FH         SYMBOL        step
  X:0712H         SYMBOL        IRQ
  X:0715H         SYMBOL        Mode
  C:569EH         LINE#         607
  C:56A9H         LINE#         608
  C:56A9H         LINE#         609
  C:56C0H         LINE#         610
  C:56C0H         LINE#         611
  C:56C0H         LINE#         612
  C:56C5H         LINE#         613
  C:56C8H         LINE#         615
  C:56CFH         LINE#         617
  C:56D4H         LINE#         618
  C:56DBH         LINE#         619
  C:56E6H         LINE#         621
  C:56EBH         LINE#         622
  C:56FBH         LINE#         623
BL51 BANKED LINKER/LOCATER V6.22.2.0                                                  11/11/2022  18:17:38  PAGE 114


  C:570BH         LINE#         624
  C:570CH         LINE#         626
  C:570CH         LINE#         627
  C:570FH         LINE#         628
  C:5721H         LINE#         630
  C:5728H         LINE#         631
  C:5728H         LINE#         632
  C:572DH         LINE#         633
  C:573DH         LINE#         634
  C:574CH         LINE#         635
  C:574CH         LINE#         636
  C:574DH         LINE#         638
  C:574DH         LINE#         639
  C:575CH         LINE#         640
  C:575CH         LINE#         641
  C:575CH         LINE#         642
  -------         ENDPROC       _SIMPLEFIFO_TX_PROCESS
  -------         PROC          _SIMPLEFIFO_RX_PROCESS
  X:070FH         SYMBOL        step
  X:0712H         SYMBOL        IRQ
  X:0715H         SYMBOL        Mode
  -------         DO            
  D:0007H         SYMBOL        a
  -------         ENDDO         
  C:50A7H         LINE#         650
  C:50B2H         LINE#         651
  C:50B2H         LINE#         654
  C:50BEH         LINE#         655
  C:50BEH         LINE#         656
  C:50BEH         LINE#         657
  C:50C3H         LINE#         658
  C:50C6H         LINE#         660
  C:50CDH         LINE#         662
  C:50D9H         LINE#         663
  C:50E8H         LINE#         665
  C:50EDH         LINE#         666
  C:50F4H         LINE#         668
  C:50F9H         LINE#         669
  C:5109H         LINE#         670
  C:5119H         LINE#         671
  C:511AH         LINE#         673
  C:511AH         LINE#         674
  C:511DH         LINE#         675
  C:512FH         LINE#         677
  C:5138H         LINE#         678
  C:5138H         LINE#         679
  C:513CH         LINE#         680
  C:5147H         LINE#         681
  C:515AH         LINE#         682
  C:515FH         LINE#         683
  C:516FH         LINE#         684
  C:517EH         LINE#         685
  C:5183H         LINE#         686
  C:5183H         LINE#         687
  C:5184H         LINE#         689
  C:5184H         LINE#         690
  C:5193H         LINE#         691
BL51 BANKED LINKER/LOCATER V6.22.2.0                                                  11/11/2022  18:17:38  PAGE 115


  C:5193H         LINE#         692
  C:5193H         LINE#         693
  -------         ENDPROC       _SIMPLEFIFO_RX_PROCESS
  -------         PROC          RF_FINISHED_PROCESS
  C:6BD0H         LINE#         703
  C:6BD0H         LINE#         704
  C:6BD0H         LINE#         705
  C:6BD7H         LINE#         706
  C:6BD7H         LINE#         707
  C:6BD9H         LINE#         708
  C:6BDFH         LINE#         710
  C:6BE6H         LINE#         711
  C:6BE6H         LINE#         712
  C:6BE6H         LINE#         715
  C:6BE6H         LINE#         716
  C:6BE6H         LINE#         719
  C:6BE6H         LINE#         720
  C:6BE6H         LINE#         723
  C:6BE6H         LINE#         724
  C:6BE6H         LINE#         727
  C:6BE6H         LINE#         728
  C:6BE6H         LINE#         729
  C:6BE6H         LINE#         730
  C:6BE6H         LINE#         732
  C:6BE6H         LINE#         734
  C:6BEEH         LINE#         735
  C:6BEEH         LINE#         736
  C:6BF0H         LINE#         737
  C:6BF6H         LINE#         738
  C:6BFDH         LINE#         739
  C:6BFDH         LINE#         743
  C:6BFDH         LINE#         745
  C:6BFDH         LINE#         746
  C:6C04H         LINE#         747
  C:6C04H         LINE#         748
  C:6C04H         LINE#         751
  C:6C04H         LINE#         752
  C:6C04H         LINE#         755
  C:6C04H         LINE#         756
  C:6C04H         LINE#         759
  C:6C04H         LINE#         760
  C:6C04H         LINE#         763
  C:6C04H         LINE#         764
  C:6C04H         LINE#         765
  C:6C04H         LINE#         766
  C:6C04H         LINE#         767
  C:6C04H         LINE#         768
  C:6C04H         LINE#         769
  -------         ENDPROC       RF_FINISHED_PROCESS
  -------         PROC          BC3602_RF_PROCESS
  C:655BH         LINE#         772
  C:655BH         LINE#         773
  C:655BH         LINE#         774
  C:655EH         LINE#         775
  C:6566H         LINE#         776
  C:6587H         LINE#         778
  C:658FH         LINE#         779
BL51 BANKED LINKER/LOCATER V6.22.2.0                                                  11/11/2022  18:17:38  PAGE 116


  C:65B0H         LINE#         780
  C:65B3H         LINE#         782
  -------         ENDPROC       BC3602_RF_PROCESS
  -------         PROC          _SET_RFMODE
  D:0007H         SYMBOL        Mode_x
  C:705AH         LINE#         784
  C:705AH         LINE#         785
  C:705AH         LINE#         786
  C:7062H         LINE#         787
  C:7062H         LINE#         788
  C:7062H         LINE#         790
  C:7068H         LINE#         791
  C:7069H         LINE#         792
  C:7069H         LINE#         793
  C:706FH         LINE#         795
  C:706FH         LINE#         796
  C:706FH         LINE#         797
  C:706FH         LINE#         798
  C:706FH         LINE#         799
  C:706FH         LINE#         800
  -------         ENDPROC       _SET_RFMODE
  -------         PROC          RESET_RFSTEP
  C:7261H         LINE#         802
  C:7261H         LINE#         803
  C:7261H         LINE#         804
  C:7266H         LINE#         805
  -------         ENDPROC       RESET_RFSTEP
  -------         ENDMOD        BC3602

  -------         MODULE        BC3602_GATEWAY
  C:0000H         SYMBOL        _ICE_DUMMY_
  D:0080H         PUBLIC        P0
  D:0090H         PUBLIC        P1
  D:00A0H         PUBLIC        P2
  D:00B0H         PUBLIC        P3
  D:00D8H         PUBLIC        P4
  D:00A8H         PUBLIC        IE
  D:00B8H         PUBLIC        IP
  C:6DADH         PUBLIC        BC3602_TX_Process
  X:062AH         PUBLIC        BC3602_Data
  D:0098H         PUBLIC        SCON
  D:0088H         PUBLIC        TCON
  C:69B7H         PUBLIC        _Get_Checksum
  C:4727H         PUBLIC        _Prepare_SendData
  D:00C0H         PUBLIC        I2C0CON
  D:00E8H         PUBLIC        I2C1CON
  D:00F8H         PUBLIC        S1CON
  D:00C8H         PUBLIC        T2CON
  D:00D0H         PUBLIC        PSW
  -------         PROC          BC3602_TX_PROCESS
  C:6DADH         LINE#         68
  C:6DADH         LINE#         69
  C:6DADH         LINE#         70
  C:6DB5H         LINE#         71
  C:6DB5H         LINE#         72
  C:6DBDH         LINE#         73
  C:6DBDH         LINE#         74
BL51 BANKED LINKER/LOCATER V6.22.2.0                                                  11/11/2022  18:17:38  PAGE 117


  C:6DC3H         LINE#         75
  C:6DC5H         LINE#         76
  C:6DC5H         LINE#         77
  C:6DCDH         LINE#         78
  C:6DD2H         LINE#         79
  C:6DD5H         LINE#         80
  C:6DD5H         LINE#         81
  -------         ENDPROC       BC3602_TX_PROCESS
  -------         PROC          _GET_CHECKSUM
  D:0001H         SYMBOL        pucFrame
  X:070FH         SYMBOL        usLen
  -------         DO            
  X:0710H         SYMBOL        Checksum
  X:0711H         SYMBOL        i
  -------         ENDDO         
  C:69B7H         LINE#         84
  C:69BCH         LINE#         85
  C:69BCH         LINE#         87
  C:69DAH         LINE#         88
  C:69DAH         LINE#         89
  C:69ECH         LINE#         90
  C:69F2H         LINE#         91
  C:69F7H         LINE#         92
  -------         ENDPROC       _GET_CHECKSUM
  -------         PROC          _PREPARE_SENDDATA
  D:0007H         SYMBOL        BC3602_TX_M
  C:4727H         LINE#         95
  C:4727H         LINE#         96
  C:4727H         LINE#         97
  C:472EH         LINE#         98
  C:472EH         LINE#         99
  C:472EH         LINE#         100
  C:4734H         LINE#         101
  C:4738H         LINE#         102
  C:473BH         LINE#         103
  C:473FH         LINE#         104
  C:4747H         LINE#         105
  C:474DH         LINE#         106
  C:4751H         LINE#         107
  C:4755H         LINE#         108
  C:4757H         LINE#         109
  C:4759H         LINE#         110
  C:475FH         LINE#         111
  C:4767H         LINE#         112
  C:476DH         LINE#         113
  C:4771H         LINE#         114
  C:4775H         LINE#         115
  C:477DH         LINE#         116
  C:4785H         LINE#         117
  C:478DH         LINE#         118
  C:4795H         LINE#         119
  C:479EH         LINE#         120
  C:47B6H         LINE#         121
  C:47CEH         LINE#         122
  C:47E6H         LINE#         123
  C:47F4H         LINE#         124
  C:47FCH         LINE#         125
BL51 BANKED LINKER/LOCATER V6.22.2.0                                                  11/11/2022  18:17:38  PAGE 118


  C:4804H         LINE#         126
  C:480CH         LINE#         127
  C:4814H         LINE#         128
  C:481CH         LINE#         129
  C:4824H         LINE#         130
  C:482DH         LINE#         131
  C:4835H         LINE#         132
  C:483EH         LINE#         133
  C:4841H         LINE#         134
  C:4843H         LINE#         135
  C:4856H         LINE#         136
  C:4869H         LINE#         137
  C:486CH         LINE#         138
  C:4871H         LINE#         139
  C:4871H         LINE#         141
  C:4871H         LINE#         142
  C:4871H         LINE#         143
  C:4871H         LINE#         144
  -------         ENDPROC       _PREPARE_SENDDATA
  -------         ENDMOD        BC3602_GATEWAY

  -------         MODULE        BC3602_SPI
  C:0000H         SYMBOL        _ICE_DUMMY_
  D:0080H         PUBLIC        P0
  D:0090H         PUBLIC        P1
  D:00A0H         PUBLIC        P2
  D:00B0H         PUBLIC        P3
  D:00D8H         PUBLIC        P4
  C:6049H         PUBLIC        _BC3602_WriteRegister
  D:00A8H         PUBLIC        IE
  D:00B8H         PUBLIC        IP
  C:7267H         PUBLIC        BC3602_EnterLightSleep
  C:6C3AH         PUBLIC        SpiRead
  B:0080H.0       PUBLIC        P00
  B:0090H.0       PUBLIC        P10
  B:0080H.1       PUBLIC        P01
  D:0098H         PUBLIC        SCON
  D:0088H         PUBLIC        TCON
  C:6C05H         PUBLIC        _SpiWrite
  D:00C0H         PUBLIC        I2C0CON
  D:00E8H         PUBLIC        I2C1CON
  C:6DD6H         PUBLIC        _Set_RFSDIO_Dir
  D:00F8H         PUBLIC        S1CON
  D:00C8H         PUBLIC        T2CON
  C:6B2AH         PUBLIC        _BC3602_StrobeCommand
  C:6F52H         PUBLIC        BC3602_SPI_IOConfig
  D:00D0H         PUBLIC        PSW
  C:716BH         PUBLIC        _BC3602_RegisterBank
  -------         PROC          BC3602_SPI_IOCONFIG
  C:6F52H         LINE#         4
  C:6F52H         LINE#         5
  C:6F52H         LINE#         7
  C:6F5BH         LINE#         8
  C:6F60H         LINE#         9
  C:6F69H         LINE#         10
  C:6F6BH         LINE#         11
  C:6F6DH         LINE#         12
BL51 BANKED LINKER/LOCATER V6.22.2.0                                                  11/11/2022  18:17:38  PAGE 119


  C:6F6FH         LINE#         13
  -------         ENDPROC       BC3602_SPI_IOCONFIG
  -------         PROC          _SET_RFSDIO_DIR
  X:071EH         SYMBOL        Director
  C:6DD6H         LINE#         15
  C:6DDBH         LINE#         16
  C:6DDBH         LINE#         17
  C:6DDDH         LINE#         18
  C:6DDDH         LINE#         19
  C:6DE5H         LINE#         21
  C:6DE6H         LINE#         22
  C:6DEEH         LINE#         23
  C:6DEEH         LINE#         24
  C:6DF6H         LINE#         25
  C:6DFEH         LINE#         26
  C:6DFEH         LINE#         27
  -------         ENDPROC       _SET_RFSDIO_DIR
  -------         PROC          _SPIWRITE
  X:071DH         SYMBOL        SIMD
  -------         DO            
  D:0007H         SYMBOL        cnt
  -------         ENDDO         
  C:6C05H         LINE#         29
  C:6C0AH         LINE#         30
  C:6C0AH         LINE#         34
  C:6C0FH         LINE#         35
  C:6C1BH         LINE#         36
  C:6C1BH         LINE#         38
  C:6C1DH         LINE#         39
  C:6C25H         LINE#         40
  C:6C29H         LINE#         42
  C:6C2BH         LINE#         43
  C:6C32H         LINE#         45
  C:6C34H         LINE#         46
  C:6C37H         LINE#         48
  C:6C39H         LINE#         50
  -------         ENDPROC       _SPIWRITE
  -------         PROC          SPIREAD
  -------         DO            
  D:0003H         SYMBOL        cnt
  X:071DH         SYMBOL        SIMD
  -------         ENDDO         
  C:6C3AH         LINE#         58
  C:6C3AH         LINE#         59
  C:6C3AH         LINE#         61
  C:6C3FH         LINE#         63
  C:6C44H         LINE#         65
  C:6C46H         LINE#         66
  C:6C52H         LINE#         67
  C:6C52H         LINE#         68
  C:6C5AH         LINE#         70
  C:6C5CH         LINE#         71
  C:6C5FH         LINE#         72
  C:6C63H         LINE#         74
  C:6C65H         LINE#         75
  C:6C68H         LINE#         76
  C:6C6DH         LINE#         78
BL51 BANKED LINKER/LOCATER V6.22.2.0                                                  11/11/2022  18:17:38  PAGE 120


  -------         ENDPROC       SPIREAD
  -------         PROC          _BC3602_STROBECOMMAND
  X:070FH         SYMBOL        StrobeCmd
  -------         DO            
  D:0007H         SYMBOL        cnt
  -------         ENDDO         
  C:6B2AH         LINE#         80
  C:6B2FH         LINE#         81
  C:6B2FH         LINE#         84
  C:6B34H         LINE#         86
  C:6B36H         LINE#         87
  C:6B42H         LINE#         88
  C:6B42H         LINE#         89
  C:6B44H         LINE#         90
  C:6B4CH         LINE#         91
  C:6B50H         LINE#         93
  C:6B52H         LINE#         94
  C:6B59H         LINE#         95
  C:6B5BH         LINE#         96
  C:6B5EH         LINE#         97
  C:6B60H         LINE#         98
  C:6B62H         LINE#         99
  -------         ENDPROC       _BC3602_STROBECOMMAND
  -------         PROC          BC3602_ENTERLIGHTSLEEP
  C:7267H         LINE#         101
  C:7267H         LINE#         102
  C:7267H         LINE#         103
  C:726CH         LINE#         104
  -------         ENDPROC       BC3602_ENTERLIGHTSLEEP
  -------         PROC          _BC3602_REGISTERBANK
  D:0007H         SYMBOL        reg_Bank
  C:716BH         LINE#         106
  C:716BH         LINE#         107
  C:716BH         LINE#         108
  C:716FH         LINE#         109
  C:7172H         LINE#         110
  C:7175H         LINE#         111
  -------         ENDPROC       _BC3602_REGISTERBANK
  -------         PROC          _BC3602_WRITEREGISTER
  X:070FH         SYMBOL        reg
  X:0710H         SYMBOL        value
  -------         DO            
  D:0007H         SYMBOL        cnt
  -------         ENDDO         
  C:6049H         LINE#         113
  C:6051H         LINE#         114
  C:6051H         LINE#         117
  C:6056H         LINE#         119
  C:605DH         LINE#         120
  C:6060H         LINE#         121
  C:6062H         LINE#         122
  C:606EH         LINE#         123
  C:606EH         LINE#         124
  C:6070H         LINE#         125
  C:6078H         LINE#         126
  C:607CH         LINE#         128
  C:607EH         LINE#         129
BL51 BANKED LINKER/LOCATER V6.22.2.0                                                  11/11/2022  18:17:38  PAGE 121


  C:6085H         LINE#         130
  C:6087H         LINE#         131
  C:608AH         LINE#         132
  C:608CH         LINE#         134
  C:6098H         LINE#         135
  C:6098H         LINE#         136
  C:609AH         LINE#         137
  C:60A2H         LINE#         138
  C:60A6H         LINE#         140
  C:60A8H         LINE#         141
  C:60AFH         LINE#         142
  C:60B1H         LINE#         143
  C:60B4H         LINE#         144
  C:60B6H         LINE#         146
  C:60B8H         LINE#         147
  -------         ENDPROC       _BC3602_WRITEREGISTER
  -------         ENDMOD        BC3602_SPI

  -------         MODULE        ?C?FPADD
  C:00BDH         PUBLIC        ?C?FPADD
  C:00B9H         PUBLIC        ?C?FPSUB
  -------         ENDMOD        ?C?FPADD

  -------         MODULE        ?C?FPMUL
  C:01AEH         PUBLIC        ?C?FPMUL
  -------         ENDMOD        ?C?FPMUL

  -------         MODULE        ?C?FPDIV
  C:02B7H         PUBLIC        ?C?FPDIV
  -------         ENDMOD        ?C?FPDIV

  -------         MODULE        ?C?FPCMP
  C:0356H         PUBLIC        ?C?FPCMP
  C:0354H         PUBLIC        ?C?FPCMP3
  -------         ENDMOD        ?C?FPCMP

  -------         MODULE        ?C?FCAST
  C:03D7H         PUBLIC        ?C?FCASTC
  C:03D2H         PUBLIC        ?C?FCASTI
  C:03CDH         PUBLIC        ?C?FCASTL
  -------         ENDMOD        ?C?FCAST

  -------         MODULE        ?C?CASTF
  C:040BH         PUBLIC        ?C?CASTF
  -------         ENDMOD        ?C?CASTF

  -------         MODULE        ?C?COPY
  C:055CH         PUBLIC        ?C?COPY
  -------         ENDMOD        ?C?COPY

  -------         MODULE        ?C?CLDPTR
  C:0582H         PUBLIC        ?C?CLDPTR
  -------         ENDMOD        ?C?CLDPTR

  -------         MODULE        ?C?CLDOPTR
  C:059BH         PUBLIC        ?C?CLDOPTR
  -------         ENDMOD        ?C?CLDOPTR
BL51 BANKED LINKER/LOCATER V6.22.2.0                                                  11/11/2022  18:17:38  PAGE 122



  -------         MODULE        ?C?CILDPTR
  C:05C8H         PUBLIC        ?C?CILDPTR
  -------         ENDMOD        ?C?CILDPTR

  -------         MODULE        ?C?CSTPTR
  C:05EAH         PUBLIC        ?C?CSTPTR
  -------         ENDMOD        ?C?CSTPTR

  -------         MODULE        ?C?CSTOPTR
  C:05FCH         PUBLIC        ?C?CSTOPTR
  -------         ENDMOD        ?C?CSTOPTR

  -------         MODULE        ?C?IMUL
  C:061EH         PUBLIC        ?C?IMUL
  -------         ENDMOD        ?C?IMUL

  -------         MODULE        ?C?UIDIV
  C:0630H         PUBLIC        ?C?UIDIV
  -------         ENDMOD        ?C?UIDIV

  -------         MODULE        ?C?IILDX
  C:0685H         PUBLIC        ?C?IILDX
  -------         ENDMOD        ?C?IILDX

  -------         MODULE        ?C?ILDIX
  C:069BH         PUBLIC        ?C?ILDIX
  -------         ENDMOD        ?C?ILDIX

  -------         MODULE        ?C?LMUL
  C:06B1H         PUBLIC        ?C?LMUL
  -------         ENDMOD        ?C?LMUL

  -------         MODULE        ?C?ULDIV
  C:073CH         PUBLIC        ?C?ULDIV
  -------         ENDMOD        ?C?ULDIV

  -------         MODULE        ?C?LNEG
  C:07CEH         PUBLIC        ?C?LNEG
  -------         ENDMOD        ?C?LNEG

  -------         MODULE        ?C?ULSHR
  C:07DCH         PUBLIC        ?C?ULSHR
  -------         ENDMOD        ?C?ULSHR

  -------         MODULE        ?C?LSTXDATA
  C:07EFH         PUBLIC        ?C?LSTXDATA
  -------         ENDMOD        ?C?LSTXDATA

  -------         MODULE        ?C?LSTKXDATA
  C:07FBH         PUBLIC        ?C?LSTKXDATA
  -------         ENDMOD        ?C?LSTKXDATA

  -------         MODULE        ?C?CCASE
  C:082CH         PUBLIC        ?C?CCASE
  -------         ENDMOD        ?C?CCASE

BL51 BANKED LINKER/LOCATER V6.22.2.0                                                  11/11/2022  18:17:38  PAGE 123


  -------         MODULE        ?C?MEMSET
  C:0852H         PUBLIC        ?C?MEMSET
  -------         ENDMOD        ?C?MEMSET

*** WARNING L1: UNRESOLVED EXTERNAL SYMBOL
    SYMBOL:  BC3602_SOFTWARERESET
    MODULE:  .\Output\BC3602.obj (BC3602)

*** WARNING L1: UNRESOLVED EXTERNAL SYMBOL
    SYMBOL:  BC3602_CRYSTALREADY
    MODULE:  .\Output\BC3602.obj (BC3602)

*** WARNING L1: UNRESOLVED EXTERNAL SYMBOL
    SYMBOL:  RFGETCLRRFIRQ
    MODULE:  .\Output\BC3602.obj (BC3602)

*** WARNING L1: UNRESOLVED EXTERNAL SYMBOL
    SYMBOL:  RFXTALREADY
    MODULE:  .\Output\BC3602.obj (BC3602)

*** WARNING L2: REFERENCE MADE TO UNRESOLVED EXTERNAL
    SYMBOL:  BC3602_SOFTWARERESET
    MODULE:  .\Output\BC3602.obj (BC3602)
    ADDRESS: 649EH

*** WARNING L2: REFERENCE MADE TO UNRESOLVED EXTERNAL
    SYMBOL:  BC3602_CRYSTALREADY
    MODULE:  .\Output\BC3602.obj (BC3602)
    ADDRESS: 64A6H

*** WARNING L2: REFERENCE MADE TO UNRESOLVED EXTERNAL
    SYMBOL:  RFXTALREADY
    MODULE:  .\Output\BC3602.obj (BC3602)
    ADDRESS: 56C6H

*** WARNING L2: REFERENCE MADE TO UNRESOLVED EXTERNAL
    SYMBOL:  RFGETCLRRFIRQ
    MODULE:  .\Output\BC3602.obj (BC3602)
    ADDRESS: 5710H

*** WARNING L2: REFERENCE MADE TO UNRESOLVED EXTERNAL
    SYMBOL:  RFXTALREADY
    MODULE:  .\Output\BC3602.obj (BC3602)
    ADDRESS: 50C4H

*** WARNING L2: REFERENCE MADE TO UNRESOLVED EXTERNAL
    SYMBOL:  RFGETCLRRFIRQ
    MODULE:  .\Output\BC3602.obj (BC3602)
    ADDRESS: 511EH

Program Size: data=12.7 xdata=1903 code=29293
LINK/LOCATE RUN COMPLETE.  10 WARNING(S),  0 ERROR(S)
